;
; File generated by cc65 v 2.18 - N/A
;
	.fopt		compiler,"cc65 v 2.18 - N/A"
	.setcpu		"6502"
	.smart		on
	.autoimport	on
	.case		on
	.debuginfo	off
	.importzp	sp, sreg, regsave, regbank
	.importzp	tmp1, tmp2, tmp3, tmp4, ptr1, ptr2, ptr3, ptr4
	.macpack	longbranch
	.forceimport	__STARTUP__
	.import		_pal_bg
	.import		_pal_spr
	.import		_ppu_wait_nmi
	.import		_ppu_off
	.import		_ppu_on_all
	.import		_oam_clear
	.import		_oam_meta_spr
	.import		_pad_poll
	.import		_bank_spr
	.import		_bank_bg
	.import		_vram_adr
	.import		_vram_put
	.import		_memcpy
	.import		_set_vram_buffer
	.import		_multi_vram_buffer_horz
	.import		_clear_vram_buffer
	.import		_get_pad_new
	.import		_set_scroll_x
	.import		_set_scroll_y
	.import		_get_ppu_addr
	.import		_set_data_pointer
	.import		_set_mt_pointer
	.import		_buffer_4_mt
	.import		_flush_vram_update2
	.export		_bankLevel
	.export		_bankBuffer
	.export		_banked_call
	.export		_bank_push
	.export		_bank_pop
	.import		_set_prg_bank
	.import		_get_prg_bank
	.import		_set_chr_bank_1
	.import		_set_mirroring
	.export		_direction
	.export		_direction_y
	.export		_arg1
	.export		_arg2
	.export		_pad1
	.export		_pad1_new
	.export		_pad1_state
	.export		_char_state
	.export		_song
	.export		_sound
	.export		_game_mode
	.export		_selected_stage
	.export		_temp_x
	.export		_temp_y
	.export		_temp_sprite
	.export		_old_x
	.export		_old_y
	.export		_player_in_air
	.export		_player_is_sliding
	.export		_player_is_running
	.export		_player_on_ladder
	.export		_player_on_ladder_pose
	.export		_player_on_ladder_top
	.export		_player_in_hitstun
	.export		_falling_down
	.export		_multi_jump
	.export		_multi_jump_max
	.export		_short_jump_count
	.export		_player_shooting
	.export		_projectile_cooldown
	.export		_projectile_index
	.export		_hit_direction
	.export		_projectiles_list
	.export		_projectiles_x
	.export		_projectiles_y
	.export		_eject_L
	.export		_eject_R
	.export		_eject_D
	.export		_eject_U
	.export		_collision_L
	.export		_collision_R
	.export		_collision_U
	.export		_collision_D
	.export		_coordinates
	.export		_location_with_scroll
	.export		_collision
	.export		_map_loaded
	.export		_scrolling_direction
	.export		_metatile_colision_map
	.export		_nametable_to_load
	.export		_offset
	.export		_address
	.export		_x
	.export		_y
	.export		_nt
	.export		_index
	.export		_map
	.export		_scroll_x
	.export		_scroll_y
	.export		_max_rooms
	.export		_max_scroll
	.export		_room_to_load
	.export		_temp_room
	.export		_current_stage
	.export		_current_level
	.export		_scroll_count
	.export		_pseudo_scroll_x
	.export		_c_map
	.export		_c_map2
	.export		_temp1
	.export		_temp2
	.export		_temp3
	.export		_l_scroll_frames
	.export		_r_scroll_frames
	.export		_Player1
	.export		_Generic
	.export		_Generic2
	.export		_wram_array
	.export		_noah_box
	.export		_noah_slide
	.export		_projectile
	.export		_topleft
	.export		_bottomleft
	.export		_bg_collision_sub
	.export		_bg_collision_fast
	.export		_bg_coll_L
	.export		_bg_coll_R
	.export		_bg_coll_ladder
	.export		_bg_coll_ladder_top_at_player
	.export		_bg_coll_ladder_top_under_player
	.export		_bg_coll_U
	.export		_bg_coll_D
	.export		_movement
	.export		_check_player_colision
	.export		_bank0_player_movement
	.export		_bank0_draw_player_sprite
	.export		_projectile_movement
	.export		_function_bank1
	.export		_stage1_level0_0
	.export		_stage1_level0_1
	.export		_stage1_level0_2
	.export		_stage1_level0_3
	.export		_stage1_level0_4
	.export		_stage1_level0_5
	.export		_stage1_level0_6
	.export		_stage1_level0_7
	.export		_stage2_level0_0
	.export		_stage2_level0_1
	.export		_function_bank2
	.export		_stage0_levels
	.export		_stage1_levels
	.export		_stage_table
	.export		_levels_per_stage
	.export		_metatile
	.export		_drawMetatileBlock
	.export		_draw_screen_L
	.export		_draw_screen_R
	.export		_new_cmap
	.export		_prep_scroll_screen
	.export		_handle_scrolling
	.export		_titletiled_0
	.export		_bank2_load_title
	.export		_gameovertiled_0
	.export		_bank2_load_gameover
	.export		_bank2_load_room
	.export		_bank2_scroll_screen
	.export		_function_bank3
	.export		_function_bank4
	.export		_function_bank5
	.export		_function_bank6
	.export		_palette_bg
	.export		_palette_sp
	.export		_load_level_select
	.export		_update_level_select_display
	.export		_main

.segment	"DATA"

_projectiles_list:
	.byte	$FF
	.byte	$FF
	.byte	$FF
	.byte	$FF
_projectiles_x:
	.byte	$00
	.byte	$00
	.byte	$00
	.byte	$00
_projectiles_y:
	.byte	$00
	.byte	$00
	.byte	$00
	.byte	$00
_room_to_load:
	.byte	$00
_current_stage:
	.byte	$00
_current_level:
	.byte	$00
_Player1:
	.word	$4000
	.word	$9400
	.res	6,$00
_stage0_levels:
	.addr	_stage1_level0_0
	.addr	_stage1_level0_1
	.addr	_stage1_level0_2
	.addr	_stage1_level0_3
	.addr	_stage1_level0_4
	.addr	_stage1_level0_5
	.addr	_stage1_level0_6
	.addr	_stage1_level0_7
_stage1_levels:
	.addr	_stage2_level0_0
	.addr	_stage2_level0_1
_stage_table:
	.addr	_stage0_levels
	.addr	_stage1_levels

.segment	"RODATA"

_metatile_colision_map:
	.byte	$40
	.byte	$40
	.byte	$40
	.byte	$40
	.byte	$40
	.byte	$40
	.byte	$40
	.byte	$40
	.byte	$40
	.byte	$40
	.byte	$40
	.byte	$40
	.byte	$40
	.byte	$40
	.byte	$40
	.byte	$40
	.byte	$40
	.byte	$40
	.byte	$40
	.byte	$40
	.byte	$40
	.byte	$40
	.byte	$40
	.byte	$40
	.byte	$40
	.byte	$40
	.byte	$40
	.byte	$40
	.byte	$40
	.byte	$00
	.byte	$40
	.byte	$40
	.byte	$40
	.byte	$40
	.byte	$40
	.byte	$40
	.byte	$40
	.byte	$40
	.byte	$40
	.byte	$40
	.byte	$40
	.byte	$00
	.byte	$00
	.byte	$00
	.byte	$00
	.byte	$00
	.byte	$00
	.byte	$00
	.byte	$40
	.byte	$40
	.byte	$40
	.byte	$40
	.byte	$40
	.byte	$40
	.byte	$40
	.byte	$40
	.byte	$40
	.byte	$40
	.byte	$40
	.byte	$40
	.byte	$40
	.byte	$01
	.byte	$02
	.byte	$00
	.byte	$00
	.byte	$00
	.byte	$00
	.byte	$00
	.byte	$00
	.byte	$00
	.byte	$00
	.byte	$00
	.byte	$00
	.byte	$00
	.byte	$00
	.byte	$00
	.byte	$00
	.byte	$00
	.byte	$00
	.byte	$00
	.byte	$00
	.byte	$00
	.byte	$00
	.byte	$00
	.byte	$00
	.byte	$00
	.byte	$00
	.byte	$00
	.byte	$00
	.byte	$00
	.byte	$00
	.byte	$00
	.byte	$00
	.byte	$00
	.byte	$00
	.byte	$00
	.byte	$00
	.byte	$00
	.byte	$00
	.byte	$00
	.byte	$00
	.byte	$00
	.byte	$00
	.byte	$00
	.byte	$00
	.byte	$00
	.byte	$00
	.byte	$00
	.byte	$00
	.byte	$00
	.byte	$00
	.byte	$00
	.byte	$00
	.byte	$00
	.byte	$00
	.byte	$00
	.byte	$00
	.byte	$00
	.byte	$00
	.byte	$00
	.byte	$00
	.byte	$00
	.byte	$00
	.byte	$00
	.byte	$00
	.byte	$00
	.byte	$00
	.byte	$00
	.byte	$00
	.byte	$00
	.byte	$00
	.byte	$00
	.byte	$00
	.byte	$00
	.byte	$00
	.byte	$00
	.byte	$00
	.byte	$00
	.byte	$00
	.byte	$00
	.byte	$00
	.byte	$00
	.byte	$00
	.byte	$00
	.byte	$00
	.byte	$00
	.byte	$00
	.byte	$00
	.byte	$00
	.byte	$00
	.byte	$00
	.byte	$00
	.byte	$00
	.byte	$00
	.byte	$00
	.byte	$00
	.byte	$00
	.byte	$00
	.byte	$00
	.byte	$00
	.byte	$00
	.byte	$00
	.byte	$00
	.byte	$00
	.byte	$00
	.byte	$00
	.byte	$00
	.byte	$00
	.byte	$00
	.byte	$00
	.byte	$00
	.byte	$00
	.byte	$00
	.byte	$00
	.byte	$00
	.byte	$00
	.byte	$00
	.byte	$00
	.byte	$00
	.byte	$00
	.byte	$00
	.byte	$00
	.byte	$00
	.byte	$00
	.byte	$00
	.byte	$00
	.byte	$00
	.byte	$00
	.byte	$00
	.byte	$00
	.byte	$00
	.byte	$00
	.byte	$00
	.byte	$00
	.byte	$00
	.byte	$00
	.byte	$00
	.byte	$00
	.byte	$00
	.byte	$00
	.byte	$00
	.byte	$00
	.byte	$00
	.byte	$00
	.byte	$00
	.byte	$00
	.byte	$00
	.byte	$00
	.byte	$00
	.byte	$00
	.byte	$00
	.byte	$00
	.byte	$00
	.byte	$00
	.byte	$00
	.byte	$00
	.byte	$00
	.byte	$00
	.byte	$00
	.byte	$00
	.byte	$00
	.byte	$00
	.byte	$00
	.byte	$00
	.byte	$00
	.byte	$00
	.byte	$00
	.byte	$00
	.byte	$00
	.byte	$00
	.byte	$00
	.byte	$00
	.byte	$00
	.byte	$00
	.byte	$00
	.byte	$00
	.byte	$00
	.byte	$00
	.byte	$00
	.byte	$00
.segment	"BANK0"
_noah_box:
	.byte	$00
	.byte	$00
	.byte	$4F
	.byte	$00
	.byte	$00
	.byte	$08
	.byte	$4F
	.byte	$00
	.byte	$00
	.byte	$10
	.byte	$3F
	.byte	$80
	.byte	$06
	.byte	$00
	.byte	$4F
	.byte	$00
	.byte	$06
	.byte	$08
	.byte	$4F
	.byte	$00
	.byte	$06
	.byte	$10
	.byte	$3F
	.byte	$80
	.byte	$80
_noah_slide:
	.byte	$00
	.byte	$0C
	.byte	$4F
	.byte	$00
	.byte	$06
	.byte	$0C
	.byte	$4F
	.byte	$00
	.byte	$0C
	.byte	$0C
	.byte	$4F
	.byte	$00
	.byte	$12
	.byte	$0C
	.byte	$4F
	.byte	$00
	.byte	$80
_projectile:
	.byte	$00
	.byte	$00
	.byte	$5F
	.byte	$00
	.byte	$80
_topleft:
	.byte	$00
	.byte	$00
	.byte	$50
	.byte	$00
	.byte	$80
_bottomleft:
	.byte	$00
	.byte	$00
	.byte	$51
	.byte	$00
	.byte	$80
.segment	"BANK1"
.segment	"BANK2"
_stage1_level0_0:
	.byte	$3C
	.byte	$1E
	.byte	$1F
	.byte	$50
	.byte	$8B
	.byte	$86
	.byte	$2D
	.byte	$87
	.byte	$7B
	.byte	$86
	.byte	$2D
	.byte	$2D
	.byte	$92
	.byte	$94
	.byte	$89
	.byte	$94
	.byte	$00
	.byte	$01
	.byte	$1E
	.byte	$1F
	.byte	$86
	.byte	$93
	.byte	$2D
	.byte	$2D
	.byte	$87
	.byte	$93
	.byte	$2E
	.byte	$93
	.byte	$2D
	.byte	$2D
	.byte	$89
	.byte	$91
	.byte	$02
	.byte	$03
	.byte	$00
	.byte	$1E
	.byte	$93
	.byte	$92
	.byte	$2E
	.byte	$2D
	.byte	$92
	.byte	$91
	.byte	$2E
	.byte	$2E
	.byte	$93
	.byte	$2D
	.byte	$94
	.byte	$2D
	.byte	$00
	.byte	$01
	.byte	$02
	.byte	$02
	.byte	$91
	.byte	$93
	.byte	$2D
	.byte	$2D
	.byte	$2D
	.byte	$91
	.byte	$89
	.byte	$2D
	.byte	$2D
	.byte	$92
	.byte	$94
	.byte	$91
	.byte	$02
	.byte	$03
	.byte	$15
	.byte	$1B
	.byte	$91
	.byte	$2D
	.byte	$2D
	.byte	$2D
	.byte	$89
	.byte	$90
	.byte	$88
	.byte	$2E
	.byte	$2D
	.byte	$2E
	.byte	$88
	.byte	$91
	.byte	$00
	.byte	$15
	.byte	$CC
	.byte	$CD
	.byte	$29
	.byte	$89
	.byte	$2D
	.byte	$88
	.byte	$2A
	.byte	$46
	.byte	$90
	.byte	$2A
	.byte	$2B
	.byte	$2F
	.byte	$90
	.byte	$88
	.byte	$14
	.byte	$CE
	.byte	$BF
	.byte	$9A
	.byte	$49
	.byte	$90
	.byte	$2C
	.byte	$2A
	.byte	$47
	.byte	$73
	.byte	$48
	.byte	$49
	.byte	$6A
	.byte	$9F
	.byte	$49
	.byte	$2B
	.byte	$CA
	.byte	$C9
	.byte	$CD
	.byte	$50
	.byte	$50
	.byte	$49
	.byte	$62
	.byte	$48
	.byte	$50
	.byte	$71
	.byte	$77
	.byte	$50
	.byte	$69
	.byte	$50
	.byte	$50
	.byte	$9F
	.byte	$C9
	.byte	$CB
	.byte	$51
	.byte	$50
	.byte	$50
	.byte	$66
	.byte	$60
	.byte	$67
	.byte	$50
	.byte	$71
	.byte	$50
	.byte	$6E
	.byte	$69
	.byte	$50
	.byte	$50
	.byte	$76
	.byte	$C9
	.byte	$CB
	.byte	$CD
	.byte	$E2
	.byte	$59
	.byte	$59
	.byte	$61
	.byte	$58
	.byte	$59
	.byte	$72
	.byte	$58
	.byte	$59
	.byte	$68
	.byte	$58
	.byte	$59
	.byte	$58
	.byte	$C9
	.byte	$C9
	.byte	$CB
	.byte	$51
	.byte	$54
	.byte	$63
	.byte	$64
	.byte	$65
	.byte	$74
	.byte	$55
	.byte	$75
	.byte	$52
	.byte	$69
	.byte	$54
	.byte	$51
	.byte	$74
	.byte	$0F
	.byte	$04
	.byte	$04
	.byte	$0C
	.byte	$42
	.byte	$51
	.byte	$55
	.byte	$42
	.byte	$54
	.byte	$55
	.byte	$53
	.byte	$6B
	.byte	$6C
	.byte	$6D
	.byte	$53
	.byte	$51
	.byte	$02
	.byte	$3A
	.byte	$3B
	.byte	$00
	.byte	$0F
	.byte	$06
	.byte	$08
	.byte	$0C
	.byte	$51
	.byte	$40
	.byte	$41
	.byte	$56
	.byte	$55
	.byte	$57
	.byte	$56
	.byte	$56
	.byte	$00
	.byte	$3C
	.byte	$10
	.byte	$02
	.byte	$00
	.byte	$03
	.byte	$00
	.byte	$01
	.byte	$0E
	.byte	$07
	.byte	$05
	.byte	$06
	.byte	$07
	.byte	$08
	.byte	$09
	.byte	$0A
	.byte	$37
	.byte	$37
	.byte	$37
	.byte	$38
	.byte	$38
	.byte	$37
	.byte	$37
	.byte	$38
	.byte	$38
	.byte	$37
	.byte	$38
	.byte	$38
	.byte	$37
	.byte	$37
	.byte	$38
	.byte	$37
_stage1_level0_1:
	.byte	$2D
	.byte	$2E
	.byte	$89
	.byte	$88
	.byte	$89
	.byte	$2E
	.byte	$2E
	.byte	$89
	.byte	$88
	.byte	$89
	.byte	$2E
	.byte	$2E
	.byte	$89
	.byte	$87
	.byte	$50
	.byte	$50
	.byte	$2D
	.byte	$2E
	.byte	$94
	.byte	$93
	.byte	$93
	.byte	$2D
	.byte	$92
	.byte	$2E
	.byte	$94
	.byte	$2E
	.byte	$2E
	.byte	$2E
	.byte	$2E
	.byte	$2E
	.byte	$50
	.byte	$50
	.byte	$2E
	.byte	$2E
	.byte	$2E
	.byte	$91
	.byte	$2D
	.byte	$2E
	.byte	$2D
	.byte	$2E
	.byte	$92
	.byte	$2D
	.byte	$2E
	.byte	$2E
	.byte	$92
	.byte	$2A
	.byte	$50
	.byte	$50
	.byte	$2D
	.byte	$2E
	.byte	$92
	.byte	$88
	.byte	$94
	.byte	$2D
	.byte	$2E
	.byte	$2E
	.byte	$92
	.byte	$93
	.byte	$2E
	.byte	$2E
	.byte	$94
	.byte	$48
	.byte	$50
	.byte	$50
	.byte	$2D
	.byte	$2D
	.byte	$94
	.byte	$89
	.byte	$88
	.byte	$2D
	.byte	$2D
	.byte	$89
	.byte	$2A
	.byte	$2B
	.byte	$2C
	.byte	$2E
	.byte	$2A
	.byte	$DC
	.byte	$DE
	.byte	$50
	.byte	$90
	.byte	$2B
	.byte	$2C
	.byte	$2A
	.byte	$90
	.byte	$2D
	.byte	$2C
	.byte	$2A
	.byte	$46
	.byte	$62
	.byte	$47
	.byte	$2B
	.byte	$48
	.byte	$50
	.byte	$50
	.byte	$50
	.byte	$46
	.byte	$62
	.byte	$48
	.byte	$49
	.byte	$46
	.byte	$2F
	.byte	$46
	.byte	$46
	.byte	$48
	.byte	$61
	.byte	$67
	.byte	$9F
	.byte	$50
	.byte	$50
	.byte	$50
	.byte	$50
	.byte	$73
	.byte	$61
	.byte	$DC
	.byte	$DE
	.byte	$9F
	.byte	$6A
	.byte	$73
	.byte	$9E
	.byte	$50
	.byte	$61
	.byte	$50
	.byte	$50
	.byte	$50
	.byte	$50
	.byte	$50
	.byte	$50
	.byte	$71
	.byte	$60
	.byte	$50
	.byte	$50
	.byte	$50
	.byte	$69
	.byte	$71
	.byte	$77
	.byte	$50
	.byte	$61
	.byte	$50
	.byte	$50
	.byte	$50
	.byte	$50
	.byte	$50
	.byte	$50
	.byte	$72
	.byte	$60
	.byte	$58
	.byte	$58
	.byte	$59
	.byte	$68
	.byte	$72
	.byte	$58
	.byte	$59
	.byte	$61
	.byte	$58
	.byte	$59
	.byte	$58
	.byte	$58
	.byte	$58
	.byte	$58
	.byte	$63
	.byte	$64
	.byte	$65
	.byte	$54
	.byte	$52
	.byte	$69
	.byte	$72
	.byte	$52
	.byte	$63
	.byte	$64
	.byte	$65
	.byte	$54
	.byte	$55
	.byte	$54
	.byte	$51
	.byte	$53
	.byte	$55
	.byte	$55
	.byte	$52
	.byte	$42
	.byte	$6B
	.byte	$6C
	.byte	$6D
	.byte	$75
	.byte	$56
	.byte	$55
	.byte	$57
	.byte	$52
	.byte	$51
	.byte	$56
	.byte	$51
	.byte	$52
	.byte	$51
	.byte	$54
	.byte	$55
	.byte	$57
	.byte	$56
	.byte	$41
	.byte	$57
	.byte	$51
	.byte	$51
	.byte	$53
	.byte	$41
	.byte	$40
	.byte	$42
	.byte	$0F
	.byte	$04
	.byte	$0C
	.byte	$0B
	.byte	$04
	.byte	$05
	.byte	$06
	.byte	$07
	.byte	$04
	.byte	$08
	.byte	$06
	.byte	$07
	.byte	$04
	.byte	$05
	.byte	$06
	.byte	$0D
	.byte	$00
	.byte	$10
	.byte	$11
	.byte	$37
	.byte	$38
	.byte	$38
	.byte	$37
	.byte	$38
	.byte	$37
	.byte	$37
	.byte	$38
	.byte	$37
	.byte	$38
	.byte	$37
	.byte	$37
	.byte	$37
	.byte	$37
	.byte	$37
	.byte	$38
_stage1_level0_2:
	.byte	$50
	.byte	$50
	.byte	$50
	.byte	$50
	.byte	$50
	.byte	$50
	.byte	$50
	.byte	$50
	.byte	$50
	.byte	$50
	.byte	$50
	.byte	$50
	.byte	$50
	.byte	$50
	.byte	$50
	.byte	$50
	.byte	$50
	.byte	$50
	.byte	$50
	.byte	$50
	.byte	$50
	.byte	$50
	.byte	$50
	.byte	$50
	.byte	$50
	.byte	$50
	.byte	$50
	.byte	$50
	.byte	$DD
	.byte	$DC
	.byte	$DC
	.byte	$DC
	.byte	$DD
	.byte	$DC
	.byte	$DC
	.byte	$DE
	.byte	$50
	.byte	$50
	.byte	$50
	.byte	$50
	.byte	$50
	.byte	$50
	.byte	$50
	.byte	$50
	.byte	$50
	.byte	$50
	.byte	$50
	.byte	$50
	.byte	$50
	.byte	$50
	.byte	$50
	.byte	$50
	.byte	$50
	.byte	$50
	.byte	$50
	.byte	$50
	.byte	$50
	.byte	$50
	.byte	$50
	.byte	$50
	.byte	$50
	.byte	$50
	.byte	$50
	.byte	$50
	.byte	$50
	.byte	$50
	.byte	$50
	.byte	$50
	.byte	$50
	.byte	$50
	.byte	$50
	.byte	$50
	.byte	$50
	.byte	$50
	.byte	$50
	.byte	$50
	.byte	$50
	.byte	$50
	.byte	$50
	.byte	$50
	.byte	$50
	.byte	$50
	.byte	$50
	.byte	$50
	.byte	$50
	.byte	$50
	.byte	$DD
	.byte	$DC
	.byte	$DE
	.byte	$50
	.byte	$50
	.byte	$50
	.byte	$50
	.byte	$50
	.byte	$50
	.byte	$50
	.byte	$50
	.byte	$50
	.byte	$50
	.byte	$50
	.byte	$50
	.byte	$50
	.byte	$50
	.byte	$50
	.byte	$50
	.byte	$50
	.byte	$50
	.byte	$50
	.byte	$50
	.byte	$50
	.byte	$50
	.byte	$50
	.byte	$50
	.byte	$50
	.byte	$50
	.byte	$50
	.byte	$50
	.byte	$50
	.byte	$50
	.byte	$50
	.byte	$50
	.byte	$50
	.byte	$50
	.byte	$50
	.byte	$50
	.byte	$50
	.byte	$50
	.byte	$50
	.byte	$50
	.byte	$50
	.byte	$50
	.byte	$50
	.byte	$50
	.byte	$50
	.byte	$50
	.byte	$50
	.byte	$50
	.byte	$50
	.byte	$50
	.byte	$50
	.byte	$50
	.byte	$50
	.byte	$AC
	.byte	$50
	.byte	$50
	.byte	$50
	.byte	$50
	.byte	$AC
	.byte	$50
	.byte	$50
	.byte	$50
	.byte	$50
	.byte	$50
	.byte	$50
	.byte	$AD
	.byte	$50
	.byte	$50
	.byte	$50
	.byte	$35
	.byte	$34
	.byte	$A4
	.byte	$A1
	.byte	$BB
	.byte	$BD
	.byte	$B6
	.byte	$BD
	.byte	$BA
	.byte	$B0
	.byte	$BC
	.byte	$B0
	.byte	$BD
	.byte	$BC
	.byte	$35
	.byte	$36
	.byte	$25
	.byte	$21
	.byte	$51
	.byte	$A0
	.byte	$B8
	.byte	$B0
	.byte	$BC
	.byte	$B0
	.byte	$B8
	.byte	$B0
	.byte	$B7
	.byte	$B9
	.byte	$B0
	.byte	$B8
	.byte	$25
	.byte	$21
	.byte	$20
	.byte	$20
	.byte	$A3
	.byte	$A2
	.byte	$AA
	.byte	$A9
	.byte	$B0
	.byte	$A8
	.byte	$AB
	.byte	$B0
	.byte	$A8
	.byte	$A9
	.byte	$35
	.byte	$36
	.byte	$23
	.byte	$20
	.byte	$20
	.byte	$20
	.byte	$A5
	.byte	$A6
	.byte	$A6
	.byte	$35
	.byte	$34
	.byte	$34
	.byte	$34
	.byte	$33
	.byte	$34
	.byte	$36
	.byte	$25
	.byte	$21
	.byte	$20
	.byte	$20
	.byte	$20
	.byte	$20
	.byte	$51
	.byte	$51
	.byte	$51
	.byte	$38
	.byte	$37
	.byte	$38
	.byte	$37
	.byte	$37
	.byte	$38
	.byte	$38
	.byte	$23
	.byte	$20
	.byte	$20
	.byte	$20
	.byte	$20
	.byte	$20
_stage1_level0_3:
	.byte	$50
	.byte	$50
	.byte	$50
	.byte	$50
	.byte	$50
	.byte	$50
	.byte	$50
	.byte	$50
	.byte	$8B
	.byte	$86
	.byte	$89
	.byte	$2D
	.byte	$89
	.byte	$87
	.byte	$7B
	.byte	$50
	.byte	$DE
	.byte	$50
	.byte	$50
	.byte	$50
	.byte	$50
	.byte	$50
	.byte	$50
	.byte	$50
	.byte	$86
	.byte	$89
	.byte	$2E
	.byte	$88
	.byte	$88
	.byte	$89
	.byte	$87
	.byte	$50
	.byte	$50
	.byte	$50
	.byte	$50
	.byte	$50
	.byte	$50
	.byte	$50
	.byte	$DD
	.byte	$DC
	.byte	$89
	.byte	$93
	.byte	$88
	.byte	$2D
	.byte	$91
	.byte	$2E
	.byte	$94
	.byte	$50
	.byte	$50
	.byte	$50
	.byte	$50
	.byte	$50
	.byte	$50
	.byte	$50
	.byte	$50
	.byte	$50
	.byte	$91
	.byte	$89
	.byte	$2E
	.byte	$2D
	.byte	$92
	.byte	$2E
	.byte	$89
	.byte	$50
	.byte	$50
	.byte	$50
	.byte	$50
	.byte	$50
	.byte	$50
	.byte	$50
	.byte	$50
	.byte	$50
	.byte	$2C
	.byte	$88
	.byte	$91
	.byte	$2E
	.byte	$88
	.byte	$89
	.byte	$2A
	.byte	$50
	.byte	$50
	.byte	$DD
	.byte	$DC
	.byte	$DC
	.byte	$DE
	.byte	$50
	.byte	$50
	.byte	$50
	.byte	$49
	.byte	$2C
	.byte	$90
	.byte	$2B
	.byte	$90
	.byte	$2A
	.byte	$48
	.byte	$50
	.byte	$50
	.byte	$50
	.byte	$50
	.byte	$50
	.byte	$50
	.byte	$50
	.byte	$50
	.byte	$50
	.byte	$50
	.byte	$9F
	.byte	$49
	.byte	$6A
	.byte	$47
	.byte	$48
	.byte	$50
	.byte	$50
	.byte	$50
	.byte	$50
	.byte	$50
	.byte	$50
	.byte	$50
	.byte	$50
	.byte	$50
	.byte	$50
	.byte	$50
	.byte	$50
	.byte	$6E
	.byte	$69
	.byte	$50
	.byte	$50
	.byte	$50
	.byte	$50
	.byte	$50
	.byte	$AD
	.byte	$50
	.byte	$50
	.byte	$50
	.byte	$50
	.byte	$50
	.byte	$50
	.byte	$50
	.byte	$50
	.byte	$50
	.byte	$68
	.byte	$50
	.byte	$50
	.byte	$50
	.byte	$50
	.byte	$33
	.byte	$36
	.byte	$50
	.byte	$50
	.byte	$50
	.byte	$50
	.byte	$AC
	.byte	$50
	.byte	$50
	.byte	$50
	.byte	$50
	.byte	$69
	.byte	$50
	.byte	$50
	.byte	$50
	.byte	$50
	.byte	$21
	.byte	$26
	.byte	$35
	.byte	$36
	.byte	$BC
	.byte	$B0
	.byte	$BD
	.byte	$BC
	.byte	$B0
	.byte	$4D
	.byte	$6B
	.byte	$6C
	.byte	$6D
	.byte	$53
	.byte	$4F
	.byte	$BE
	.byte	$20
	.byte	$20
	.byte	$21
	.byte	$26
	.byte	$BD
	.byte	$B8
	.byte	$B0
	.byte	$B7
	.byte	$B6
	.byte	$4A
	.byte	$4B
	.byte	$5A
	.byte	$4B
	.byte	$5B
	.byte	$4C
	.byte	$B6
	.byte	$20
	.byte	$20
	.byte	$20
	.byte	$24
	.byte	$35
	.byte	$34
	.byte	$36
	.byte	$B0
	.byte	$A8
	.byte	$B0
	.byte	$B0
	.byte	$B9
	.byte	$B0
	.byte	$A8
	.byte	$AB
	.byte	$A8
	.byte	$20
	.byte	$20
	.byte	$20
	.byte	$20
	.byte	$21
	.byte	$21
	.byte	$26
	.byte	$35
	.byte	$33
	.byte	$34
	.byte	$33
	.byte	$34
	.byte	$33
	.byte	$33
	.byte	$33
	.byte	$36
	.byte	$20
	.byte	$20
	.byte	$20
	.byte	$20
	.byte	$20
	.byte	$20
	.byte	$24
	.byte	$38
	.byte	$37
	.byte	$38
	.byte	$37
	.byte	$37
	.byte	$37
	.byte	$37
	.byte	$37
	.byte	$38
_stage1_level0_4:
	.byte	$50
	.byte	$50
	.byte	$50
	.byte	$50
	.byte	$50
	.byte	$50
	.byte	$50
	.byte	$50
	.byte	$50
	.byte	$50
	.byte	$50
	.byte	$50
	.byte	$50
	.byte	$50
	.byte	$50
	.byte	$50
	.byte	$50
	.byte	$50
	.byte	$50
	.byte	$50
	.byte	$50
	.byte	$50
	.byte	$50
	.byte	$50
	.byte	$50
	.byte	$50
	.byte	$50
	.byte	$50
	.byte	$DD
	.byte	$DC
	.byte	$DC
	.byte	$DE
	.byte	$50
	.byte	$50
	.byte	$50
	.byte	$50
	.byte	$50
	.byte	$50
	.byte	$50
	.byte	$50
	.byte	$50
	.byte	$50
	.byte	$50
	.byte	$50
	.byte	$50
	.byte	$50
	.byte	$50
	.byte	$50
	.byte	$50
	.byte	$DD
	.byte	$DC
	.byte	$DC
	.byte	$DE
	.byte	$50
	.byte	$50
	.byte	$50
	.byte	$50
	.byte	$50
	.byte	$50
	.byte	$50
	.byte	$50
	.byte	$50
	.byte	$50
	.byte	$50
	.byte	$50
	.byte	$50
	.byte	$50
	.byte	$50
	.byte	$50
	.byte	$50
	.byte	$50
	.byte	$50
	.byte	$50
	.byte	$50
	.byte	$50
	.byte	$50
	.byte	$50
	.byte	$50
	.byte	$50
	.byte	$50
	.byte	$50
	.byte	$50
	.byte	$50
	.byte	$50
	.byte	$50
	.byte	$50
	.byte	$50
	.byte	$50
	.byte	$50
	.byte	$50
	.byte	$50
	.byte	$50
	.byte	$50
	.byte	$50
	.byte	$50
	.byte	$50
	.byte	$50
	.byte	$50
	.byte	$50
	.byte	$50
	.byte	$50
	.byte	$50
	.byte	$50
	.byte	$50
	.byte	$DD
	.byte	$DC
	.byte	$DE
	.byte	$50
	.byte	$50
	.byte	$50
	.byte	$50
	.byte	$50
	.byte	$50
	.byte	$50
	.byte	$50
	.byte	$50
	.byte	$50
	.byte	$50
	.byte	$50
	.byte	$50
	.byte	$50
	.byte	$50
	.byte	$50
	.byte	$50
	.byte	$50
	.byte	$50
	.byte	$50
	.byte	$D1
	.byte	$50
	.byte	$50
	.byte	$50
	.byte	$50
	.byte	$50
	.byte	$50
	.byte	$50
	.byte	$50
	.byte	$50
	.byte	$50
	.byte	$50
	.byte	$50
	.byte	$50
	.byte	$D1
	.byte	$D2
	.byte	$D6
	.byte	$50
	.byte	$50
	.byte	$AC
	.byte	$50
	.byte	$50
	.byte	$50
	.byte	$50
	.byte	$50
	.byte	$50
	.byte	$50
	.byte	$AD
	.byte	$50
	.byte	$D0
	.byte	$D5
	.byte	$D4
	.byte	$D4
	.byte	$B0
	.byte	$B6
	.byte	$B0
	.byte	$BA
	.byte	$B0
	.byte	$BB
	.byte	$7E
	.byte	$78
	.byte	$5F
	.byte	$BA
	.byte	$B0
	.byte	$BA
	.byte	$BD
	.byte	$BE
	.byte	$BA
	.byte	$B0
	.byte	$B8
	.byte	$B0
	.byte	$B9
	.byte	$B0
	.byte	$B7
	.byte	$BC
	.byte	$5C
	.byte	$5D
	.byte	$5E
	.byte	$B6
	.byte	$B7
	.byte	$A9
	.byte	$AB
	.byte	$B7
	.byte	$0E
	.byte	$0D
	.byte	$B0
	.byte	$B9
	.byte	$B0
	.byte	$AA
	.byte	$B0
	.byte	$B7
	.byte	$B0
	.byte	$A8
	.byte	$B7
	.byte	$B0
	.byte	$A9
	.byte	$B0
	.byte	$0E
	.byte	$0D
	.byte	$00
	.byte	$3C
	.byte	$A6
	.byte	$A6
	.byte	$A6
	.byte	$0E
	.byte	$07
	.byte	$08
	.byte	$09
	.byte	$04
	.byte	$05
	.byte	$06
	.byte	$07
	.byte	$0C
	.byte	$3A
	.byte	$3B
	.byte	$02
	.byte	$01
	.byte	$51
	.byte	$51
	.byte	$51
	.byte	$38
	.byte	$37
	.byte	$37
	.byte	$38
	.byte	$38
	.byte	$38
	.byte	$38
	.byte	$37
	.byte	$38
	.byte	$38
	.byte	$37
	.byte	$37
	.byte	$38
_stage1_level0_5:
	.byte	$50
	.byte	$50
	.byte	$50
	.byte	$50
	.byte	$50
	.byte	$50
	.byte	$50
	.byte	$DD
	.byte	$DC
	.byte	$DC
	.byte	$DC
	.byte	$DE
	.byte	$50
	.byte	$50
	.byte	$50
	.byte	$50
	.byte	$50
	.byte	$50
	.byte	$50
	.byte	$50
	.byte	$50
	.byte	$50
	.byte	$50
	.byte	$50
	.byte	$50
	.byte	$50
	.byte	$50
	.byte	$50
	.byte	$50
	.byte	$50
	.byte	$50
	.byte	$DD
	.byte	$50
	.byte	$50
	.byte	$50
	.byte	$50
	.byte	$50
	.byte	$50
	.byte	$50
	.byte	$50
	.byte	$50
	.byte	$50
	.byte	$50
	.byte	$50
	.byte	$50
	.byte	$50
	.byte	$50
	.byte	$50
	.byte	$50
	.byte	$50
	.byte	$50
	.byte	$50
	.byte	$50
	.byte	$50
	.byte	$50
	.byte	$50
	.byte	$50
	.byte	$50
	.byte	$DD
	.byte	$DC
	.byte	$DE
	.byte	$50
	.byte	$50
	.byte	$50
	.byte	$50
	.byte	$50
	.byte	$50
	.byte	$50
	.byte	$50
	.byte	$50
	.byte	$50
	.byte	$50
	.byte	$50
	.byte	$50
	.byte	$50
	.byte	$50
	.byte	$50
	.byte	$50
	.byte	$D1
	.byte	$D3
	.byte	$50
	.byte	$50
	.byte	$C5
	.byte	$D1
	.byte	$D3
	.byte	$E0
	.byte	$E1
	.byte	$E2
	.byte	$50
	.byte	$50
	.byte	$50
	.byte	$50
	.byte	$D1
	.byte	$D2
	.byte	$D5
	.byte	$0E
	.byte	$50
	.byte	$D0
	.byte	$D4
	.byte	$D6
	.byte	$D7
	.byte	$EC
	.byte	$EB
	.byte	$EA
	.byte	$E3
	.byte	$50
	.byte	$50
	.byte	$D0
	.byte	$D5
	.byte	$D4
	.byte	$D4
	.byte	$00
	.byte	$D2
	.byte	$D4
	.byte	$D4
	.byte	$D4
	.byte	$D9
	.byte	$DA
	.byte	$EE
	.byte	$E9
	.byte	$E9
	.byte	$E4
	.byte	$E5
	.byte	$E6
	.byte	$D4
	.byte	$0F
	.byte	$0C
	.byte	$02
	.byte	$D6
	.byte	$D4
	.byte	$D6
	.byte	$D6
	.byte	$D4
	.byte	$D8
	.byte	$DA
	.byte	$EF
	.byte	$E9
	.byte	$E9
	.byte	$EB
	.byte	$EA
	.byte	$E7
	.byte	$3C
	.byte	$12
	.byte	$3A
	.byte	$0E
	.byte	$07
	.byte	$04
	.byte	$06
	.byte	$04
	.byte	$0C
	.byte	$D8
	.byte	$DB
	.byte	$EE
	.byte	$0E
	.byte	$0C
	.byte	$E9
	.byte	$EB
	.byte	$12
	.byte	$01
	.byte	$12
	.byte	$00
	.byte	$3C
	.byte	$12
	.byte	$02
	.byte	$10
	.byte	$01
	.byte	$BC
	.byte	$B0
	.byte	$BD
	.byte	$00
	.byte	$01
	.byte	$BB
	.byte	$BD
	.byte	$10
	.byte	$03
	.byte	$3C
	.byte	$02
	.byte	$3A
	.byte	$3B
	.byte	$10
	.byte	$12
	.byte	$11
	.byte	$B9
	.byte	$B0
	.byte	$B9
	.byte	$02
	.byte	$03
	.byte	$B8
	.byte	$BC
	.byte	$3A
	.byte	$3B
	.byte	$3C
	.byte	$00
	.byte	$01
	.byte	$3C
	.byte	$3A
	.byte	$3B
	.byte	$01
	.byte	$A9
	.byte	$B6
	.byte	$A9
	.byte	$00
	.byte	$01
	.byte	$B0
	.byte	$A7
	.byte	$00
	.byte	$3C
	.byte	$00
	.byte	$02
	.byte	$03
	.byte	$10
	.byte	$3C
	.byte	$10
	.byte	$03
	.byte	$A6
	.byte	$A6
	.byte	$A6
	.byte	$02
	.byte	$03
	.byte	$A6
	.byte	$A6
	.byte	$02
	.byte	$01
	.byte	$02
	.byte	$38
	.byte	$37
	.byte	$37
	.byte	$38
	.byte	$37
	.byte	$38
	.byte	$51
	.byte	$51
	.byte	$51
	.byte	$38
	.byte	$38
	.byte	$51
	.byte	$51
	.byte	$38
	.byte	$38
	.byte	$37
_stage1_level0_6:
	.byte	$50
	.byte	$50
	.byte	$50
	.byte	$50
	.byte	$50
	.byte	$50
	.byte	$50
	.byte	$50
	.byte	$DD
	.byte	$DC
	.byte	$DC
	.byte	$DC
	.byte	$DE
	.byte	$50
	.byte	$50
	.byte	$50
	.byte	$DC
	.byte	$DC
	.byte	$DC
	.byte	$DE
	.byte	$50
	.byte	$50
	.byte	$50
	.byte	$50
	.byte	$50
	.byte	$50
	.byte	$50
	.byte	$50
	.byte	$50
	.byte	$50
	.byte	$50
	.byte	$50
	.byte	$50
	.byte	$50
	.byte	$50
	.byte	$50
	.byte	$50
	.byte	$50
	.byte	$50
	.byte	$50
	.byte	$50
	.byte	$50
	.byte	$50
	.byte	$50
	.byte	$50
	.byte	$50
	.byte	$50
	.byte	$DD
	.byte	$50
	.byte	$50
	.byte	$50
	.byte	$50
	.byte	$50
	.byte	$50
	.byte	$50
	.byte	$50
	.byte	$50
	.byte	$50
	.byte	$50
	.byte	$50
	.byte	$50
	.byte	$50
	.byte	$50
	.byte	$50
	.byte	$E3
	.byte	$AC
	.byte	$50
	.byte	$50
	.byte	$50
	.byte	$50
	.byte	$50
	.byte	$DD
	.byte	$DC
	.byte	$DC
	.byte	$DE
	.byte	$50
	.byte	$50
	.byte	$50
	.byte	$50
	.byte	$50
	.byte	$0A
	.byte	$06
	.byte	$0C
	.byte	$50
	.byte	$50
	.byte	$50
	.byte	$50
	.byte	$50
	.byte	$50
	.byte	$50
	.byte	$50
	.byte	$50
	.byte	$50
	.byte	$D1
	.byte	$D3
	.byte	$E0
	.byte	$01
	.byte	$02
	.byte	$03
	.byte	$E4
	.byte	$E2
	.byte	$50
	.byte	$AC
	.byte	$50
	.byte	$50
	.byte	$50
	.byte	$50
	.byte	$C5
	.byte	$D0
	.byte	$D4
	.byte	$D9
	.byte	$EC
	.byte	$02
	.byte	$00
	.byte	$01
	.byte	$0E
	.byte	$08
	.byte	$06
	.byte	$0D
	.byte	$50
	.byte	$50
	.byte	$D1
	.byte	$D2
	.byte	$D4
	.byte	$D6
	.byte	$D4
	.byte	$D5
	.byte	$DB
	.byte	$3B
	.byte	$02
	.byte	$03
	.byte	$00
	.byte	$01
	.byte	$02
	.byte	$11
	.byte	$E4
	.byte	$E5
	.byte	$E8
	.byte	$D6
	.byte	$D6
	.byte	$D4
	.byte	$D6
	.byte	$D4
	.byte	$D8
	.byte	$12
	.byte	$3C
	.byte	$01
	.byte	$02
	.byte	$03
	.byte	$00
	.byte	$3C
	.byte	$E9
	.byte	$EB
	.byte	$EB
	.byte	$E7
	.byte	$DF
	.byte	$D6
	.byte	$D4
	.byte	$D6
	.byte	$D9
	.byte	$01
	.byte	$3A
	.byte	$3B
	.byte	$00
	.byte	$3C
	.byte	$02
	.byte	$01
	.byte	$0E
	.byte	$0A
	.byte	$0C
	.byte	$B9
	.byte	$BA
	.byte	$BA
	.byte	$B0
	.byte	$BC
	.byte	$B0
	.byte	$03
	.byte	$00
	.byte	$00
	.byte	$02
	.byte	$10
	.byte	$01
	.byte	$02
	.byte	$3A
	.byte	$3B
	.byte	$3C
	.byte	$B8
	.byte	$B0
	.byte	$B8
	.byte	$AB
	.byte	$B9
	.byte	$BA
	.byte	$01
	.byte	$02
	.byte	$03
	.byte	$3C
	.byte	$3C
	.byte	$03
	.byte	$00
	.byte	$3C
	.byte	$10
	.byte	$10
	.byte	$A9
	.byte	$AB
	.byte	$A7
	.byte	$B8
	.byte	$B0
	.byte	$AA
	.byte	$03
	.byte	$01
	.byte	$00
	.byte	$01
	.byte	$3A
	.byte	$3B
	.byte	$02
	.byte	$10
	.byte	$3C
	.byte	$12
	.byte	$A6
	.byte	$A6
	.byte	$A6
	.byte	$A6
	.byte	$0E
	.byte	$09
	.byte	$37
	.byte	$38
	.byte	$38
	.byte	$37
	.byte	$38
	.byte	$38
	.byte	$37
	.byte	$37
	.byte	$38
	.byte	$37
	.byte	$51
	.byte	$51
	.byte	$51
	.byte	$51
	.byte	$10
	.byte	$00
_stage1_level0_7:
	.byte	$50
	.byte	$50
	.byte	$50
	.byte	$50
	.byte	$50
	.byte	$43
	.byte	$44
	.byte	$19
	.byte	$18
	.byte	$10
	.byte	$3D
	.byte	$00
	.byte	$3C
	.byte	$02
	.byte	$03
	.byte	$02
	.byte	$50
	.byte	$50
	.byte	$50
	.byte	$50
	.byte	$50
	.byte	$50
	.byte	$50
	.byte	$9B
	.byte	$44
	.byte	$19
	.byte	$3D
	.byte	$02
	.byte	$10
	.byte	$10
	.byte	$01
	.byte	$00
	.byte	$DC
	.byte	$DC
	.byte	$DE
	.byte	$50
	.byte	$50
	.byte	$50
	.byte	$50
	.byte	$50
	.byte	$50
	.byte	$9F
	.byte	$3D
	.byte	$00
	.byte	$3A
	.byte	$3B
	.byte	$03
	.byte	$02
	.byte	$50
	.byte	$50
	.byte	$50
	.byte	$50
	.byte	$50
	.byte	$50
	.byte	$50
	.byte	$50
	.byte	$50
	.byte	$50
	.byte	$3D
	.byte	$02
	.byte	$3C
	.byte	$00
	.byte	$01
	.byte	$00
	.byte	$50
	.byte	$50
	.byte	$50
	.byte	$50
	.byte	$50
	.byte	$50
	.byte	$50
	.byte	$AD
	.byte	$50
	.byte	$50
	.byte	$3D
	.byte	$00
	.byte	$10
	.byte	$03
	.byte	$02
	.byte	$02
	.byte	$E1
	.byte	$E2
	.byte	$50
	.byte	$50
	.byte	$50
	.byte	$50
	.byte	$3E
	.byte	$0E
	.byte	$05
	.byte	$0A
	.byte	$0D
	.byte	$02
	.byte	$01
	.byte	$00
	.byte	$3A
	.byte	$3B
	.byte	$E9
	.byte	$E9
	.byte	$E3
	.byte	$50
	.byte	$50
	.byte	$50
	.byte	$3D
	.byte	$3C
	.byte	$03
	.byte	$00
	.byte	$01
	.byte	$10
	.byte	$12
	.byte	$02
	.byte	$3C
	.byte	$00
	.byte	$ED
	.byte	$EF
	.byte	$EB
	.byte	$E3
	.byte	$50
	.byte	$50
	.byte	$3D
	.byte	$00
	.byte	$01
	.byte	$02
	.byte	$03
	.byte	$00
	.byte	$01
	.byte	$11
	.byte	$10
	.byte	$02
	.byte	$DB
	.byte	$DB
	.byte	$E9
	.byte	$EB
	.byte	$E3
	.byte	$AC
	.byte	$3D
	.byte	$02
	.byte	$03
	.byte	$3C
	.byte	$01
	.byte	$02
	.byte	$03
	.byte	$3A
	.byte	$3B
	.byte	$00
	.byte	$DA
	.byte	$DB
	.byte	$EF
	.byte	$EB
	.byte	$0F
	.byte	$07
	.byte	$0D
	.byte	$00
	.byte	$01
	.byte	$10
	.byte	$02
	.byte	$00
	.byte	$01
	.byte	$3C
	.byte	$01
	.byte	$02
	.byte	$BC
	.byte	$B0
	.byte	$BD
	.byte	$BC
	.byte	$3C
	.byte	$10
	.byte	$10
	.byte	$02
	.byte	$03
	.byte	$3C
	.byte	$10
	.byte	$02
	.byte	$03
	.byte	$00
	.byte	$02
	.byte	$25
	.byte	$B9
	.byte	$0F
	.byte	$08
	.byte	$0C
	.byte	$00
	.byte	$12
	.byte	$3C
	.byte	$00
	.byte	$01
	.byte	$10
	.byte	$00
	.byte	$3C
	.byte	$01
	.byte	$02
	.byte	$25
	.byte	$20
	.byte	$A9
	.byte	$00
	.byte	$03
	.byte	$00
	.byte	$02
	.byte	$10
	.byte	$3C
	.byte	$02
	.byte	$03
	.byte	$00
	.byte	$02
	.byte	$10
	.byte	$02
	.byte	$25
	.byte	$20
	.byte	$20
	.byte	$0D
	.byte	$02
	.byte	$01
	.byte	$02
	.byte	$11
	.byte	$3C
	.byte	$10
	.byte	$00
	.byte	$10
	.byte	$02
	.byte	$25
	.byte	$21
	.byte	$21
	.byte	$20
	.byte	$20
	.byte	$20
	.byte	$01
	.byte	$10
	.byte	$01
	.byte	$3A
	.byte	$3B
	.byte	$10
	.byte	$01
	.byte	$02
	.byte	$25
	.byte	$21
	.byte	$20
	.byte	$20
	.byte	$20
	.byte	$20
	.byte	$20
	.byte	$20
_stage2_level0_0:
	.byte	$00
	.byte	$04
	.byte	$40
	.byte	$40
	.byte	$40
	.byte	$40
	.byte	$40
	.byte	$40
	.byte	$40
	.byte	$40
	.byte	$40
	.byte	$40
	.byte	$40
	.byte	$40
	.byte	$40
	.byte	$40
	.byte	$00
	.byte	$04
	.byte	$40
	.byte	$40
	.byte	$40
	.byte	$40
	.byte	$40
	.byte	$40
	.byte	$40
	.byte	$40
	.byte	$40
	.byte	$40
	.byte	$40
	.byte	$40
	.byte	$40
	.byte	$40
	.byte	$00
	.byte	$04
	.byte	$40
	.byte	$40
	.byte	$40
	.byte	$40
	.byte	$70
	.byte	$71
	.byte	$71
	.byte	$71
	.byte	$72
	.byte	$40
	.byte	$40
	.byte	$40
	.byte	$40
	.byte	$40
	.byte	$00
	.byte	$04
	.byte	$40
	.byte	$40
	.byte	$40
	.byte	$40
	.byte	$40
	.byte	$40
	.byte	$40
	.byte	$40
	.byte	$40
	.byte	$40
	.byte	$40
	.byte	$40
	.byte	$40
	.byte	$40
	.byte	$00
	.byte	$04
	.byte	$40
	.byte	$40
	.byte	$40
	.byte	$40
	.byte	$40
	.byte	$40
	.byte	$40
	.byte	$40
	.byte	$40
	.byte	$40
	.byte	$40
	.byte	$40
	.byte	$70
	.byte	$71
	.byte	$00
	.byte	$04
	.byte	$40
	.byte	$40
	.byte	$40
	.byte	$40
	.byte	$40
	.byte	$40
	.byte	$40
	.byte	$40
	.byte	$40
	.byte	$40
	.byte	$40
	.byte	$40
	.byte	$40
	.byte	$40
	.byte	$00
	.byte	$04
	.byte	$40
	.byte	$40
	.byte	$40
	.byte	$40
	.byte	$40
	.byte	$40
	.byte	$40
	.byte	$40
	.byte	$40
	.byte	$40
	.byte	$40
	.byte	$40
	.byte	$40
	.byte	$40
	.byte	$00
	.byte	$04
	.byte	$71
	.byte	$72
	.byte	$40
	.byte	$40
	.byte	$40
	.byte	$40
	.byte	$40
	.byte	$40
	.byte	$40
	.byte	$40
	.byte	$40
	.byte	$40
	.byte	$40
	.byte	$3D
	.byte	$00
	.byte	$04
	.byte	$40
	.byte	$3D
	.byte	$40
	.byte	$40
	.byte	$3C
	.byte	$40
	.byte	$40
	.byte	$40
	.byte	$3C
	.byte	$40
	.byte	$40
	.byte	$07
	.byte	$09
	.byte	$09
	.byte	$00
	.byte	$04
	.byte	$3B
	.byte	$38
	.byte	$39
	.byte	$38
	.byte	$3B
	.byte	$39
	.byte	$38
	.byte	$3A
	.byte	$38
	.byte	$3A
	.byte	$3B
	.byte	$05
	.byte	$01
	.byte	$01
	.byte	$00
	.byte	$04
	.byte	$07
	.byte	$08
	.byte	$0A
	.byte	$38
	.byte	$3A
	.byte	$38
	.byte	$38
	.byte	$38
	.byte	$07
	.byte	$08
	.byte	$0A
	.byte	$03
	.byte	$00
	.byte	$00
	.byte	$00
	.byte	$00
	.byte	$01
	.byte	$01
	.byte	$06
	.byte	$39
	.byte	$38
	.byte	$3A
	.byte	$38
	.byte	$39
	.byte	$05
	.byte	$01
	.byte	$01
	.byte	$00
	.byte	$00
	.byte	$00
	.byte	$00
	.byte	$00
	.byte	$00
	.byte	$00
	.byte	$04
	.byte	$07
	.byte	$08
	.byte	$08
	.byte	$08
	.byte	$0A
	.byte	$03
	.byte	$00
	.byte	$00
	.byte	$00
	.byte	$00
	.byte	$00
	.byte	$00
	.byte	$00
	.byte	$00
	.byte	$00
	.byte	$00
	.byte	$01
	.byte	$01
	.byte	$01
	.byte	$01
	.byte	$01
	.byte	$00
	.byte	$00
	.byte	$00
	.byte	$00
	.byte	$00
	.byte	$00
	.byte	$00
	.byte	$00
	.byte	$00
	.byte	$00
	.byte	$00
	.byte	$00
	.byte	$00
	.byte	$00
	.byte	$00
	.byte	$00
	.byte	$00
	.byte	$00
	.byte	$00
	.byte	$00
	.byte	$00
	.byte	$00
_stage2_level0_1:
	.byte	$40
	.byte	$40
	.byte	$40
	.byte	$40
	.byte	$40
	.byte	$40
	.byte	$40
	.byte	$40
	.byte	$40
	.byte	$34
	.byte	$40
	.byte	$0B
	.byte	$40
	.byte	$40
	.byte	$40
	.byte	$03
	.byte	$40
	.byte	$40
	.byte	$40
	.byte	$40
	.byte	$40
	.byte	$40
	.byte	$40
	.byte	$40
	.byte	$40
	.byte	$34
	.byte	$40
	.byte	$0C
	.byte	$40
	.byte	$40
	.byte	$70
	.byte	$03
	.byte	$40
	.byte	$40
	.byte	$40
	.byte	$40
	.byte	$40
	.byte	$40
	.byte	$40
	.byte	$40
	.byte	$40
	.byte	$34
	.byte	$40
	.byte	$0D
	.byte	$40
	.byte	$40
	.byte	$40
	.byte	$03
	.byte	$40
	.byte	$40
	.byte	$40
	.byte	$40
	.byte	$40
	.byte	$40
	.byte	$40
	.byte	$40
	.byte	$40
	.byte	$34
	.byte	$20
	.byte	$21
	.byte	$22
	.byte	$23
	.byte	$40
	.byte	$03
	.byte	$71
	.byte	$72
	.byte	$40
	.byte	$40
	.byte	$40
	.byte	$40
	.byte	$40
	.byte	$40
	.byte	$40
	.byte	$34
	.byte	$24
	.byte	$25
	.byte	$26
	.byte	$27
	.byte	$40
	.byte	$03
	.byte	$40
	.byte	$40
	.byte	$40
	.byte	$40
	.byte	$40
	.byte	$40
	.byte	$40
	.byte	$40
	.byte	$40
	.byte	$34
	.byte	$28
	.byte	$29
	.byte	$CA
	.byte	$2A
	.byte	$C9
	.byte	$03
	.byte	$40
	.byte	$40
	.byte	$40
	.byte	$40
	.byte	$3C
	.byte	$40
	.byte	$3D
	.byte	$40
	.byte	$40
	.byte	$34
	.byte	$2C
	.byte	$2D
	.byte	$C7
	.byte	$2B
	.byte	$3D
	.byte	$03
	.byte	$3C
	.byte	$40
	.byte	$40
	.byte	$07
	.byte	$09
	.byte	$09
	.byte	$09
	.byte	$09
	.byte	$09
	.byte	$09
	.byte	$09
	.byte	$09
	.byte	$09
	.byte	$09
	.byte	$0A
	.byte	$03
	.byte	$08
	.byte	$09
	.byte	$0A
	.byte	$05
	.byte	$01
	.byte	$01
	.byte	$01
	.byte	$01
	.byte	$01
	.byte	$01
	.byte	$01
	.byte	$01
	.byte	$01
	.byte	$01
	.byte	$01
	.byte	$00
	.byte	$01
	.byte	$01
	.byte	$01
	.byte	$00
	.byte	$00
	.byte	$00
	.byte	$00
	.byte	$00
	.byte	$00
	.byte	$00
	.byte	$00
	.byte	$00
	.byte	$00
	.byte	$00
	.byte	$00
	.byte	$00
	.byte	$00
	.byte	$00
	.byte	$00
	.byte	$00
	.byte	$00
	.byte	$00
	.byte	$00
	.byte	$00
	.byte	$00
	.byte	$00
	.byte	$00
	.byte	$00
	.byte	$00
	.byte	$00
	.byte	$00
	.byte	$00
	.byte	$00
	.byte	$00
	.byte	$00
	.byte	$00
	.byte	$00
	.byte	$00
	.byte	$00
	.byte	$00
	.byte	$00
	.byte	$00
	.byte	$00
	.byte	$00
	.byte	$00
	.byte	$00
	.byte	$00
	.byte	$00
	.byte	$00
	.byte	$00
	.byte	$00
	.byte	$00
	.byte	$00
	.byte	$00
	.byte	$00
	.byte	$00
	.byte	$00
	.byte	$00
	.byte	$00
	.byte	$00
	.byte	$00
	.byte	$00
	.byte	$00
	.byte	$00
	.byte	$00
	.byte	$00
	.byte	$00
	.byte	$00
	.byte	$00
	.byte	$00
	.byte	$00
	.byte	$00
	.byte	$00
	.byte	$00
	.byte	$00
	.byte	$00
	.byte	$00
	.byte	$00
	.byte	$00
	.byte	$00
	.byte	$00
	.byte	$00
	.byte	$00
	.byte	$00
	.byte	$00
	.byte	$00
	.byte	$00
	.byte	$00
	.byte	$00
	.byte	$00
	.byte	$00
	.byte	$00
	.byte	$00
	.byte	$00
	.byte	$00
	.byte	$00
_levels_per_stage:
	.byte	$08
	.byte	$02
_metatile:
	.byte	$7B
	.byte	$7C
	.byte	$8B
	.byte	$8C
	.byte	$00
	.byte	$7D
	.byte	$7E
	.byte	$8D
	.byte	$8E
	.byte	$00
	.byte	$9B
	.byte	$9C
	.byte	$AB
	.byte	$AC
	.byte	$00
	.byte	$9D
	.byte	$9E
	.byte	$AD
	.byte	$AE
	.byte	$00
	.byte	$BE
	.byte	$AF
	.byte	$7B
	.byte	$7C
	.byte	$00
	.byte	$BE
	.byte	$BE
	.byte	$8B
	.byte	$8C
	.byte	$00
	.byte	$BE
	.byte	$BF
	.byte	$8D
	.byte	$8E
	.byte	$00
	.byte	$BE
	.byte	$BE
	.byte	$AD
	.byte	$AE
	.byte	$00
	.byte	$BE
	.byte	$B9
	.byte	$9B
	.byte	$9C
	.byte	$00
	.byte	$BE
	.byte	$BE
	.byte	$9D
	.byte	$9E
	.byte	$00
	.byte	$BE
	.byte	$BB
	.byte	$AB
	.byte	$AC
	.byte	$00
	.byte	$BE
	.byte	$AF
	.byte	$AD
	.byte	$AE
	.byte	$00
	.byte	$BE
	.byte	$BD
	.byte	$7B
	.byte	$7C
	.byte	$00
	.byte	$BE
	.byte	$BD
	.byte	$7D
	.byte	$7E
	.byte	$00
	.byte	$BA
	.byte	$BF
	.byte	$9B
	.byte	$9C
	.byte	$00
	.byte	$BA
	.byte	$B8
	.byte	$9D
	.byte	$9E
	.byte	$00
	.byte	$7B
	.byte	$AE
	.byte	$7C
	.byte	$7B
	.byte	$00
	.byte	$8B
	.byte	$8C
	.byte	$9B
	.byte	$9C
	.byte	$00
	.byte	$8D
	.byte	$8E
	.byte	$9D
	.byte	$9E
	.byte	$00
	.byte	$7B
	.byte	$7C
	.byte	$8B
	.byte	$01
	.byte	$00
	.byte	$AD
	.byte	$8E
	.byte	$AE
	.byte	$01
	.byte	$00
	.byte	$AD
	.byte	$01
	.byte	$01
	.byte	$01
	.byte	$00
	.byte	$7D
	.byte	$7E
	.byte	$01
	.byte	$01
	.byte	$00
	.byte	$9D
	.byte	$9E
	.byte	$01
	.byte	$01
	.byte	$00
	.byte	$AB
	.byte	$AC
	.byte	$01
	.byte	$01
	.byte	$00
	.byte	$01
	.byte	$7B
	.byte	$01
	.byte	$01
	.byte	$00
	.byte	$7B
	.byte	$AD
	.byte	$01
	.byte	$AE
	.byte	$00
	.byte	$7B
	.byte	$7C
	.byte	$01
	.byte	$7B
	.byte	$00
	.byte	$7A
	.byte	$7C
	.byte	$8B
	.byte	$8C
	.byte	$00
	.byte	$00
	.byte	$00
	.byte	$00
	.byte	$7A
	.byte	$00
	.byte	$7B
	.byte	$6A
	.byte	$7C
	.byte	$7B
	.byte	$00
	.byte	$00
	.byte	$00
	.byte	$6A
	.byte	$00
	.byte	$00
	.byte	$75
	.byte	$76
	.byte	$85
	.byte	$86
	.byte	$02
	.byte	$65
	.byte	$66
	.byte	$85
	.byte	$86
	.byte	$02
	.byte	$75
	.byte	$76
	.byte	$95
	.byte	$96
	.byte	$02
	.byte	$74
	.byte	$76
	.byte	$84
	.byte	$86
	.byte	$02
	.byte	$75
	.byte	$77
	.byte	$85
	.byte	$87
	.byte	$02
	.byte	$64
	.byte	$66
	.byte	$84
	.byte	$86
	.byte	$02
	.byte	$65
	.byte	$67
	.byte	$85
	.byte	$87
	.byte	$02
	.byte	$74
	.byte	$76
	.byte	$94
	.byte	$96
	.byte	$02
	.byte	$75
	.byte	$77
	.byte	$95
	.byte	$97
	.byte	$02
	.byte	$DF
	.byte	$DF
	.byte	$DC
	.byte	$CD
	.byte	$03
	.byte	$DF
	.byte	$CE
	.byte	$CE
	.byte	$DB
	.byte	$03
	.byte	$CD
	.byte	$CE
	.byte	$EE
	.byte	$EE
	.byte	$03
	.byte	$DF
	.byte	$CF
	.byte	$DC
	.byte	$CC
	.byte	$03
	.byte	$34
	.byte	$CF
	.byte	$DF
	.byte	$33
	.byte	$03
	.byte	$DF
	.byte	$CF
	.byte	$33
	.byte	$CF
	.byte	$03
	.byte	$CB
	.byte	$CE
	.byte	$EF
	.byte	$EE
	.byte	$03
	.byte	$65
	.byte	$66
	.byte	$95
	.byte	$96
	.byte	$02
	.byte	$64
	.byte	$66
	.byte	$94
	.byte	$96
	.byte	$02
	.byte	$65
	.byte	$67
	.byte	$95
	.byte	$97
	.byte	$02
	.byte	$EB
	.byte	$EB
	.byte	$FB
	.byte	$FC
	.byte	$03
	.byte	$EB
	.byte	$EA
	.byte	$FC
	.byte	$FB
	.byte	$03
	.byte	$FA
	.byte	$EB
	.byte	$FC
	.byte	$FC
	.byte	$03
	.byte	$EB
	.byte	$EC
	.byte	$FB
	.byte	$FC
	.byte	$03
	.byte	$98
	.byte	$99
	.byte	$A8
	.byte	$A9
	.byte	$03
	.byte	$9A
	.byte	$98
	.byte	$AA
	.byte	$A8
	.byte	$03
	.byte	$01
	.byte	$01
	.byte	$9A
	.byte	$98
	.byte	$03
	.byte	$7B
	.byte	$8B
	.byte	$AD
	.byte	$9B
	.byte	$00
	.byte	$8E
	.byte	$7B
	.byte	$9C
	.byte	$AE
	.byte	$00
	.byte	$8B
	.byte	$7C
	.byte	$9B
	.byte	$AD
	.byte	$00
	.byte	$0A
	.byte	$0B
	.byte	$0A
	.byte	$0B
	.byte	$02
	.byte	$0A
	.byte	$0B
	.byte	$0A
	.byte	$0B
	.byte	$02
	.byte	$CA
	.byte	$CA
	.byte	$DA
	.byte	$DA
	.byte	$00
	.byte	$01
	.byte	$01
	.byte	$63
	.byte	$73
	.byte	$03
	.byte	$01
	.byte	$01
	.byte	$01
	.byte	$63
	.byte	$03
	.byte	$01
	.byte	$01
	.byte	$73
	.byte	$01
	.byte	$03
	.byte	$12
	.byte	$13
	.byte	$00
	.byte	$00
	.byte	$00
	.byte	$01
	.byte	$01
	.byte	$12
	.byte	$13
	.byte	$00
	.byte	$EF
	.byte	$9F
	.byte	$01
	.byte	$01
	.byte	$03
	.byte	$EF
	.byte	$EF
	.byte	$EE
	.byte	$EF
	.byte	$03
	.byte	$ED
	.byte	$ED
	.byte	$36
	.byte	$37
	.byte	$03
	.byte	$ED
	.byte	$38
	.byte	$37
	.byte	$00
	.byte	$03
	.byte	$39
	.byte	$ED
	.byte	$00
	.byte	$39
	.byte	$03
	.byte	$02
	.byte	$0D
	.byte	$0E
	.byte	$02
	.byte	$03
	.byte	$01
	.byte	$01
	.byte	$02
	.byte	$02
	.byte	$03
	.byte	$1F
	.byte	$02
	.byte	$02
	.byte	$2F
	.byte	$03
	.byte	$1B
	.byte	$0C
	.byte	$02
	.byte	$01
	.byte	$03
	.byte	$00
	.byte	$00
	.byte	$00
	.byte	$00
	.byte	$00
	.byte	$0F
	.byte	$3F
	.byte	$01
	.byte	$02
	.byte	$03
	.byte	$00
	.byte	$00
	.byte	$00
	.byte	$00
	.byte	$00
	.byte	$01
	.byte	$01
	.byte	$01
	.byte	$01
	.byte	$00
	.byte	$01
	.byte	$01
	.byte	$2A
	.byte	$01
	.byte	$03
	.byte	$1A
	.byte	$01
	.byte	$01
	.byte	$2A
	.byte	$03
	.byte	$1A
	.byte	$01
	.byte	$01
	.byte	$01
	.byte	$03
	.byte	$F2
	.byte	$F2
	.byte	$01
	.byte	$01
	.byte	$02
	.byte	$01
	.byte	$F3
	.byte	$01
	.byte	$01
	.byte	$02
	.byte	$D4
	.byte	$01
	.byte	$01
	.byte	$01
	.byte	$02
	.byte	$00
	.byte	$00
	.byte	$80
	.byte	$81
	.byte	$03
	.byte	$00
	.byte	$00
	.byte	$82
	.byte	$82
	.byte	$03
	.byte	$01
	.byte	$2A
	.byte	$02
	.byte	$02
	.byte	$03
	.byte	$1A
	.byte	$01
	.byte	$02
	.byte	$02
	.byte	$03
	.byte	$03
	.byte	$AA
	.byte	$03
	.byte	$E8
	.byte	$03
	.byte	$A8
	.byte	$A9
	.byte	$68
	.byte	$FC
	.byte	$03
	.byte	$8A
	.byte	$03
	.byte	$F8
	.byte	$03
	.byte	$03
	.byte	$03
	.byte	$03
	.byte	$E9
	.byte	$03
	.byte	$03
	.byte	$08
	.byte	$19
	.byte	$09
	.byte	$18
	.byte	$02
	.byte	$08
	.byte	$19
	.byte	$08
	.byte	$18
	.byte	$02
	.byte	$B1
	.byte	$B2
	.byte	$08
	.byte	$18
	.byte	$02
	.byte	$D4
	.byte	$B0
	.byte	$F3
	.byte	$C0
	.byte	$02
	.byte	$08
	.byte	$19
	.byte	$C1
	.byte	$C2
	.byte	$02
	.byte	$B3
	.byte	$F3
	.byte	$C3
	.byte	$D4
	.byte	$02
	.byte	$00
	.byte	$00
	.byte	$00
	.byte	$F0
	.byte	$02
	.byte	$F1
	.byte	$00
	.byte	$00
	.byte	$00
	.byte	$02
	.byte	$14
	.byte	$04
	.byte	$15
	.byte	$04
	.byte	$02
	.byte	$15
	.byte	$04
	.byte	$15
	.byte	$05
	.byte	$02
	.byte	$E5
	.byte	$E6
	.byte	$14
	.byte	$04
	.byte	$02
	.byte	$D4
	.byte	$E4
	.byte	$F3
	.byte	$F4
	.byte	$02
	.byte	$14
	.byte	$04
	.byte	$F5
	.byte	$F6
	.byte	$02
	.byte	$E7
	.byte	$F3
	.byte	$F7
	.byte	$D4
	.byte	$02
	.byte	$00
	.byte	$E2
	.byte	$00
	.byte	$00
	.byte	$02
	.byte	$E3
	.byte	$00
	.byte	$00
	.byte	$00
	.byte	$02
	.byte	$06
	.byte	$17
	.byte	$06
	.byte	$17
	.byte	$02
	.byte	$07
	.byte	$16
	.byte	$07
	.byte	$17
	.byte	$02
	.byte	$06
	.byte	$17
	.byte	$07
	.byte	$17
	.byte	$02
	.byte	$E0
	.byte	$E1
	.byte	$06
	.byte	$16
	.byte	$02
	.byte	$D4
	.byte	$D0
	.byte	$F2
	.byte	$F2
	.byte	$02
	.byte	$D1
	.byte	$F3
	.byte	$F2
	.byte	$F2
	.byte	$02
	.byte	$00
	.byte	$00
	.byte	$00
	.byte	$D2
	.byte	$02
	.byte	$00
	.byte	$00
	.byte	$D3
	.byte	$00
	.byte	$02
	.byte	$03
	.byte	$03
	.byte	$AA
	.byte	$AA
	.byte	$03
	.byte	$00
	.byte	$00
	.byte	$00
	.byte	$00
	.byte	$00
	.byte	$A9
	.byte	$A9
	.byte	$78
	.byte	$69
	.byte	$03
	.byte	$00
	.byte	$00
	.byte	$89
	.byte	$00
	.byte	$03
	.byte	$8A
	.byte	$00
	.byte	$8A
	.byte	$00
	.byte	$03
	.byte	$8A
	.byte	$00
	.byte	$79
	.byte	$00
	.byte	$03
	.byte	$03
	.byte	$03
	.byte	$03
	.byte	$F9
	.byte	$03
	.byte	$F9
	.byte	$E9
	.byte	$AA
	.byte	$AA
	.byte	$03
	.byte	$90
	.byte	$90
	.byte	$00
	.byte	$00
	.byte	$02
	.byte	$91
	.byte	$92
	.byte	$00
	.byte	$00
	.byte	$02
	.byte	$01
	.byte	$01
	.byte	$92
	.byte	$92
	.byte	$02
	.byte	$92
	.byte	$90
	.byte	$00
	.byte	$00
	.byte	$02
	.byte	$01
	.byte	$01
	.byte	$92
	.byte	$90
	.byte	$02
	.byte	$01
	.byte	$92
	.byte	$90
	.byte	$00
	.byte	$02
	.byte	$7A
	.byte	$32
	.byte	$32
	.byte	$DF
	.byte	$03
	.byte	$CF
	.byte	$89
	.byte	$DF
	.byte	$CF
	.byte	$03
	.byte	$DF
	.byte	$33
	.byte	$DE
	.byte	$DF
	.byte	$03
	.byte	$DD
	.byte	$CF
	.byte	$DF
	.byte	$34
	.byte	$03
	.byte	$00
	.byte	$00
	.byte	$00
	.byte	$00
	.byte	$00
	.byte	$00
	.byte	$00
	.byte	$00
	.byte	$7A
	.byte	$03
	.byte	$AA
	.byte	$A8
	.byte	$68
	.byte	$69
	.byte	$03
	.byte	$AA
	.byte	$A8
	.byte	$68
	.byte	$68
	.byte	$03
	.byte	$00
	.byte	$00
	.byte	$D7
	.byte	$A7
	.byte	$00
	.byte	$D7
	.byte	$A7
	.byte	$01
	.byte	$01
	.byte	$00
	.byte	$DF
	.byte	$CF
	.byte	$DC
	.byte	$DB
	.byte	$03
	.byte	$32
	.byte	$33
	.byte	$DE
	.byte	$DF
	.byte	$03
	.byte	$DF
	.byte	$35
	.byte	$CF
	.byte	$DD
	.byte	$03
	.byte	$32
	.byte	$34
	.byte	$32
	.byte	$33
	.byte	$03
	.byte	$33
	.byte	$35
	.byte	$34
	.byte	$35
	.byte	$03
	.byte	$00
	.byte	$7A
	.byte	$88
	.byte	$DF
	.byte	$03
	.byte	$00
	.byte	$88
	.byte	$88
	.byte	$CF
	.byte	$03
	.byte	$6A
	.byte	$00
	.byte	$CF
	.byte	$6A
	.byte	$03
	.byte	$89
	.byte	$00
	.byte	$A8
	.byte	$89
	.byte	$03
	.byte	$A9
	.byte	$6A
	.byte	$A9
	.byte	$AA
	.byte	$03
	.byte	$01
	.byte	$FF
	.byte	$FF
	.byte	$00
	.byte	$03
	.byte	$FF
	.byte	$01
	.byte	$00
	.byte	$FE
	.byte	$03
	.byte	$EF
	.byte	$EF
	.byte	$FE
	.byte	$FD
	.byte	$03
	.byte	$ED
	.byte	$EE
	.byte	$FE
	.byte	$FF
	.byte	$03
	.byte	$FD
	.byte	$FE
	.byte	$00
	.byte	$00
	.byte	$03
	.byte	$FF
	.byte	$FD
	.byte	$00
	.byte	$00
	.byte	$03
	.byte	$05
	.byte	$03
	.byte	$05
	.byte	$03
	.byte	$03
	.byte	$3F
	.byte	$03
	.byte	$05
	.byte	$03
	.byte	$03
	.byte	$05
	.byte	$03
	.byte	$2F
	.byte	$03
	.byte	$03
	.byte	$01
	.byte	$1F
	.byte	$1F
	.byte	$02
	.byte	$03
	.byte	$0F
	.byte	$02
	.byte	$01
	.byte	$0F
	.byte	$03
	.byte	$02
	.byte	$2F
	.byte	$11
	.byte	$11
	.byte	$03
	.byte	$03
	.byte	$03
	.byte	$11
	.byte	$11
	.byte	$03
	.byte	$03
	.byte	$61
	.byte	$60
	.byte	$03
	.byte	$03
	.byte	$03
	.byte	$62
	.byte	$03
	.byte	$03
	.byte	$03
	.byte	$03
	.byte	$03
	.byte	$61
	.byte	$03
	.byte	$03
	.byte	$60
	.byte	$03
	.byte	$03
	.byte	$03
	.byte	$03
	.byte	$03
	.byte	$03
	.byte	$72
	.byte	$03
	.byte	$03
	.byte	$00
	.byte	$00
	.byte	$00
	.byte	$71
	.byte	$03
	.byte	$00
	.byte	$00
	.byte	$00
	.byte	$70
	.byte	$03
	.byte	$C8
	.byte	$01
	.byte	$01
	.byte	$01
	.byte	$01
	.byte	$C8
	.byte	$C9
	.byte	$01
	.byte	$D9
	.byte	$01
	.byte	$03
	.byte	$03
	.byte	$03
	.byte	$03
	.byte	$03
	.byte	$00
	.byte	$00
	.byte	$00
	.byte	$00
	.byte	$00
	.byte	$00
	.byte	$00
	.byte	$00
	.byte	$00
	.byte	$00
	.byte	$3F
	.byte	$03
	.byte	$02
	.byte	$3F
	.byte	$03
	.byte	$01
	.byte	$01
	.byte	$0D
	.byte	$01
	.byte	$03
	.byte	$03
	.byte	$0E
	.byte	$03
	.byte	$03
	.byte	$03
	.byte	$A1
	.byte	$03
	.byte	$03
	.byte	$03
	.byte	$03
	.byte	$03
	.byte	$03
	.byte	$A2
	.byte	$03
	.byte	$03
	.byte	$A2
	.byte	$03
	.byte	$03
	.byte	$A1
	.byte	$03
	.byte	$A0
	.byte	$03
	.byte	$03
	.byte	$A1
	.byte	$03
	.byte	$83
	.byte	$03
	.byte	$03
	.byte	$83
	.byte	$03
	.byte	$83
	.byte	$93
	.byte	$03
	.byte	$03
	.byte	$03
	.byte	$83
	.byte	$03
	.byte	$03
	.byte	$93
	.byte	$03
	.byte	$03
	.byte	$03
	.byte	$83
	.byte	$03
	.byte	$03
	.byte	$83
	.byte	$03
	.byte	$03
	.byte	$03
	.byte	$03
	.byte	$C9
	.byte	$D9
	.byte	$D8
	.byte	$01
	.byte	$01
	.byte	$B5
	.byte	$B6
	.byte	$C5
	.byte	$C6
	.byte	$02
	.byte	$01
	.byte	$B4
	.byte	$01
	.byte	$C4
	.byte	$02
	.byte	$B7
	.byte	$01
	.byte	$C7
	.byte	$01
	.byte	$02
	.byte	$01
	.byte	$01
	.byte	$A5
	.byte	$A6
	.byte	$02
	.byte	$D5
	.byte	$D6
	.byte	$01
	.byte	$01
	.byte	$02
	.byte	$00
	.byte	$00
	.byte	$6B
	.byte	$6B
	.byte	$00
	.byte	$00
	.byte	$00
	.byte	$00
	.byte	$00
	.byte	$01
	.byte	$10
	.byte	$10
	.byte	$01
	.byte	$01
	.byte	$00
	.byte	$01
	.byte	$9F
	.byte	$01
	.byte	$01
	.byte	$00
	.byte	$C8
	.byte	$C9
	.byte	$D8
	.byte	$D9
	.byte	$01
	.byte	$01
	.byte	$01
	.byte	$D8
	.byte	$D9
	.byte	$01
	.byte	$C8
	.byte	$01
	.byte	$D8
	.byte	$D9
	.byte	$01
	.byte	$01
	.byte	$C9
	.byte	$D8
	.byte	$D9
	.byte	$01
	.byte	$01
	.byte	$01
	.byte	$D8
	.byte	$01
	.byte	$01
	.byte	$01
	.byte	$01
	.byte	$01
	.byte	$D9
	.byte	$01
	.byte	$01
	.byte	$D9
	.byte	$01
	.byte	$01
	.byte	$01
	.byte	$00
	.byte	$5E
	.byte	$6C
	.byte	$03
	.byte	$00
	.byte	$00
	.byte	$00
	.byte	$6B
	.byte	$6C
	.byte	$00
	.byte	$6B
	.byte	$5E
	.byte	$03
	.byte	$6D
	.byte	$00
	.byte	$6B
	.byte	$5E
	.byte	$6D
	.byte	$5D
	.byte	$00
	.byte	$6D
	.byte	$03
	.byte	$03
	.byte	$6D
	.byte	$00
	.byte	$6D
	.byte	$6D
	.byte	$03
	.byte	$03
	.byte	$00
	.byte	$6D
	.byte	$03
	.byte	$03
	.byte	$03
	.byte	$00
	.byte	$6D
	.byte	$40
	.byte	$6D
	.byte	$40
	.byte	$00
	.byte	$40
	.byte	$6E
	.byte	$6F
	.byte	$40
	.byte	$00
	.byte	$6D
	.byte	$14
	.byte	$03
	.byte	$6F
	.byte	$00
	.byte	$40
	.byte	$6E
	.byte	$40
	.byte	$40
	.byte	$00
	.byte	$6E
	.byte	$6E
	.byte	$40
	.byte	$6E
	.byte	$00
	.byte	$00
	.byte	$00
	.byte	$1E
	.byte	$1E
	.byte	$01
	.byte	$00
	.byte	$00
	.byte	$00
	.byte	$1C
	.byte	$01
	.byte	$00
	.byte	$00
	.byte	$1D
	.byte	$00
	.byte	$01
	.byte	$6D
	.byte	$6D
	.byte	$A3
	.byte	$A4
	.byte	$00
	.byte	$5D
	.byte	$5B
	.byte	$40
	.byte	$9F
	.byte	$00
	.byte	$5C
	.byte	$80
	.byte	$9F
	.byte	$01
	.byte	$00
	.byte	$00
	.byte	$00
	.byte	$5B
	.byte	$5C
	.byte	$00
	.byte	$5F
	.byte	$00
	.byte	$9F
	.byte	$5F
	.byte	$00
	.byte	$5B
	.byte	$5C
	.byte	$9F
	.byte	$01
	.byte	$00
	.byte	$6B
	.byte	$6C
	.byte	$01
	.byte	$A3
	.byte	$00
	.byte	$6D
	.byte	$03
	.byte	$A4
	.byte	$03
	.byte	$00
	.byte	$A3
	.byte	$A4
	.byte	$9F
	.byte	$9F
	.byte	$00
	.byte	$03
	.byte	$6D
	.byte	$A4
	.byte	$03
	.byte	$00
	.byte	$9F
	.byte	$9F
	.byte	$9F
	.byte	$9F
	.byte	$00
	.byte	$01
	.byte	$01
	.byte	$9F
	.byte	$9F
	.byte	$00
	.byte	$9F
	.byte	$01
	.byte	$9F
	.byte	$9F
	.byte	$00
	.byte	$6E
	.byte	$9F
	.byte	$6E
	.byte	$8F
	.byte	$00
	.byte	$8F
	.byte	$7F
	.byte	$6E
	.byte	$6E
	.byte	$00
	.byte	$9F
	.byte	$9F
	.byte	$8F
	.byte	$7F
	.byte	$00
	.byte	$7F
	.byte	$9F
	.byte	$6E
	.byte	$8F
	.byte	$00
_titletiled_0:
	.byte	$50
	.byte	$50
	.byte	$50
	.byte	$50
	.byte	$50
	.byte	$50
	.byte	$50
	.byte	$50
	.byte	$50
	.byte	$50
	.byte	$50
	.byte	$DD
	.byte	$DC
	.byte	$DC
	.byte	$DE
	.byte	$50
	.byte	$DC
	.byte	$DE
	.byte	$95
	.byte	$91
	.byte	$97
	.byte	$50
	.byte	$DD
	.byte	$DC
	.byte	$DE
	.byte	$50
	.byte	$50
	.byte	$50
	.byte	$50
	.byte	$50
	.byte	$50
	.byte	$50
	.byte	$50
	.byte	$96
	.byte	$91
	.byte	$2D
	.byte	$89
	.byte	$97
	.byte	$C6
	.byte	$C6
	.byte	$C6
	.byte	$C6
	.byte	$C6
	.byte	$C6
	.byte	$C6
	.byte	$C6
	.byte	$C6
	.byte	$C6
	.byte	$50
	.byte	$91
	.byte	$89
	.byte	$94
	.byte	$89
	.byte	$94
	.byte	$C6
	.byte	$C6
	.byte	$C6
	.byte	$C6
	.byte	$C6
	.byte	$C6
	.byte	$C6
	.byte	$C6
	.byte	$C6
	.byte	$C6
	.byte	$50
	.byte	$2C
	.byte	$91
	.byte	$89
	.byte	$94
	.byte	$2A
	.byte	$C6
	.byte	$C6
	.byte	$C6
	.byte	$C6
	.byte	$C6
	.byte	$C6
	.byte	$C6
	.byte	$C6
	.byte	$C6
	.byte	$C6
	.byte	$50
	.byte	$49
	.byte	$2C
	.byte	$90
	.byte	$90
	.byte	$48
	.byte	$C6
	.byte	$C6
	.byte	$C6
	.byte	$C6
	.byte	$C6
	.byte	$C6
	.byte	$C6
	.byte	$C6
	.byte	$C6
	.byte	$C6
	.byte	$50
	.byte	$50
	.byte	$49
	.byte	$6A
	.byte	$48
	.byte	$50
	.byte	$50
	.byte	$D1
	.byte	$D3
	.byte	$E0
	.byte	$E1
	.byte	$E2
	.byte	$50
	.byte	$50
	.byte	$D1
	.byte	$D3
	.byte	$D1
	.byte	$D2
	.byte	$E4
	.byte	$68
	.byte	$58
	.byte	$59
	.byte	$D0
	.byte	$D4
	.byte	$D9
	.byte	$EC
	.byte	$EE
	.byte	$E9
	.byte	$E3
	.byte	$D0
	.byte	$D4
	.byte	$D9
	.byte	$BE
	.byte	$BE
	.byte	$BD
	.byte	$69
	.byte	$BD
	.byte	$BC
	.byte	$B0
	.byte	$BD
	.byte	$B0
	.byte	$BC
	.byte	$BD
	.byte	$BC
	.byte	$B0
	.byte	$BD
	.byte	$BE
	.byte	$BD
	.byte	$B0
	.byte	$B8
	.byte	$B0
	.byte	$68
	.byte	$B0
	.byte	$BE
	.byte	$BC
	.byte	$B0
	.byte	$BE
	.byte	$B6
	.byte	$7E
	.byte	$7F
	.byte	$5F
	.byte	$B9
	.byte	$B0
	.byte	$BC
	.byte	$BC
	.byte	$4D
	.byte	$6B
	.byte	$6C
	.byte	$6D
	.byte	$4F
	.byte	$B0
	.byte	$A7
	.byte	$B0
	.byte	$B8
	.byte	$5C
	.byte	$5D
	.byte	$5E
	.byte	$A8
	.byte	$A9
	.byte	$AA
	.byte	$B0
	.byte	$4A
	.byte	$4B
	.byte	$4B
	.byte	$4B
	.byte	$4C
	.byte	$B6
	.byte	$B7
	.byte	$B8
	.byte	$AB
	.byte	$A7
	.byte	$B0
	.byte	$A8
	.byte	$A9
	.byte	$B0
	.byte	$A9
	.byte	$B6
	.byte	$B7
	.byte	$B0
	.byte	$B0
	.byte	$B8
	.byte	$B0
	.byte	$B6
	.byte	$B0
	.byte	$B0
	.byte	$A9
	.byte	$B0
	.byte	$AA
	.byte	$B0
	.byte	$B7
	.byte	$B0
	.byte	$B9
	.byte	$A7
	.byte	$A8
	.byte	$AB
	.byte	$AA
	.byte	$B0
	.byte	$A7
	.byte	$A8
	.byte	$B0
	.byte	$B0
	.byte	$B0
	.byte	$AA
	.byte	$B0
	.byte	$A9
	.byte	$B0
	.byte	$B9
	.byte	$B0
	.byte	$B0
	.byte	$B6
	.byte	$B7
	.byte	$B0
	.byte	$B0
	.byte	$B0
	.byte	$B0
	.byte	$A9
	.byte	$B7
	.byte	$B0
	.byte	$B0
	.byte	$A9
	.byte	$AA
	.byte	$B0
	.byte	$B0
	.byte	$AB
_gameovertiled_0:
	.byte	$3A
	.byte	$3B
	.byte	$02
	.byte	$14
	.byte	$03
	.byte	$10
	.byte	$14
	.byte	$10
	.byte	$3C
	.byte	$10
	.byte	$01
	.byte	$10
	.byte	$10
	.byte	$01
	.byte	$02
	.byte	$03
	.byte	$00
	.byte	$01
	.byte	$10
	.byte	$10
	.byte	$01
	.byte	$14
	.byte	$51
	.byte	$1A
	.byte	$03
	.byte	$12
	.byte	$03
	.byte	$1A
	.byte	$00
	.byte	$10
	.byte	$3A
	.byte	$3B
	.byte	$02
	.byte	$03
	.byte	$14
	.byte	$51
	.byte	$17
	.byte	$CE
	.byte	$C9
	.byte	$CD
	.byte	$51
	.byte	$51
	.byte	$51
	.byte	$CD
	.byte	$19
	.byte	$18
	.byte	$10
	.byte	$10
	.byte	$14
	.byte	$51
	.byte	$51
	.byte	$CC
	.byte	$CA
	.byte	$C9
	.byte	$C9
	.byte	$C9
	.byte	$C9
	.byte	$C9
	.byte	$C9
	.byte	$C9
	.byte	$C9
	.byte	$CD
	.byte	$19
	.byte	$1B
	.byte	$51
	.byte	$CC
	.byte	$C9
	.byte	$C9
	.byte	$C9
	.byte	$C9
	.byte	$C9
	.byte	$C9
	.byte	$C9
	.byte	$C9
	.byte	$C9
	.byte	$C9
	.byte	$C9
	.byte	$C9
	.byte	$CB
	.byte	$51
	.byte	$CC
	.byte	$C9
	.byte	$C9
	.byte	$C9
	.byte	$C9
	.byte	$C9
	.byte	$C9
	.byte	$C9
	.byte	$C9
	.byte	$C9
	.byte	$C9
	.byte	$C9
	.byte	$C9
	.byte	$C9
	.byte	$C9
	.byte	$CB
	.byte	$C9
	.byte	$C9
	.byte	$BF
	.byte	$C3
	.byte	$AF
	.byte	$C9
	.byte	$C9
	.byte	$C9
	.byte	$C9
	.byte	$C9
	.byte	$C9
	.byte	$BF
	.byte	$C3
	.byte	$AF
	.byte	$C9
	.byte	$C9
	.byte	$C9
	.byte	$C9
	.byte	$C1
	.byte	$C0
	.byte	$C2
	.byte	$C9
	.byte	$C9
	.byte	$C9
	.byte	$C9
	.byte	$C9
	.byte	$C9
	.byte	$C1
	.byte	$C0
	.byte	$C2
	.byte	$C9
	.byte	$C9
	.byte	$C9
	.byte	$C9
	.byte	$CB
	.byte	$C4
	.byte	$CC
	.byte	$C9
	.byte	$C9
	.byte	$C9
	.byte	$C9
	.byte	$C9
	.byte	$C9
	.byte	$CB
	.byte	$C4
	.byte	$CC
	.byte	$C9
	.byte	$C9
	.byte	$C9
	.byte	$C9
	.byte	$C9
	.byte	$C9
	.byte	$C9
	.byte	$C9
	.byte	$C9
	.byte	$C9
	.byte	$C9
	.byte	$C9
	.byte	$C9
	.byte	$C9
	.byte	$C9
	.byte	$C9
	.byte	$C9
	.byte	$C9
	.byte	$C9
	.byte	$C9
	.byte	$C9
	.byte	$C9
	.byte	$C9
	.byte	$C9
	.byte	$BF
	.byte	$BF
	.byte	$51
	.byte	$AF
	.byte	$AF
	.byte	$C9
	.byte	$C9
	.byte	$C9
	.byte	$C9
	.byte	$C9
	.byte	$C9
	.byte	$C9
	.byte	$C9
	.byte	$C9
	.byte	$BF
	.byte	$51
	.byte	$51
	.byte	$51
	.byte	$51
	.byte	$51
	.byte	$CF
	.byte	$AF
	.byte	$C9
	.byte	$C9
	.byte	$C9
	.byte	$C9
	.byte	$C9
	.byte	$C9
	.byte	$C9
	.byte	$BF
	.byte	$51
	.byte	$51
	.byte	$51
	.byte	$51
	.byte	$51
	.byte	$51
	.byte	$51
	.byte	$CF
	.byte	$C9
	.byte	$C9
	.byte	$C9
	.byte	$C9
	.byte	$04
	.byte	$05
	.byte	$07
	.byte	$07
	.byte	$08
	.byte	$09
	.byte	$06
	.byte	$04
	.byte	$06
	.byte	$06
	.byte	$07
	.byte	$08
	.byte	$09
	.byte	$0A
	.byte	$0B
	.byte	$04
	.byte	$00
	.byte	$02
	.byte	$3A
	.byte	$3B
	.byte	$10
	.byte	$00
	.byte	$01
	.byte	$00
	.byte	$03
	.byte	$02
	.byte	$10
	.byte	$00
	.byte	$3C
	.byte	$01
	.byte	$3A
	.byte	$3B
.segment	"BANK3"
.segment	"BANK4"
.segment	"BANK5"
.segment	"BANK6"
.segment	"CODE"
_palette_bg:
	.byte	$21
	.byte	$0F
	.byte	$00
	.byte	$10
	.byte	$21
	.byte	$0F
	.byte	$30
	.byte	$08
	.byte	$21
	.byte	$0F
	.byte	$17
	.byte	$06
	.byte	$21
	.byte	$0F
	.byte	$19
	.byte	$29
_palette_sp:
	.byte	$21
	.byte	$17
	.byte	$24
	.byte	$36
	.byte	$21
	.byte	$05
	.byte	$16
	.byte	$37
	.byte	$21
	.byte	$0F
	.byte	$11
	.byte	$30
	.byte	$21
	.byte	$17
	.byte	$3D
	.byte	$37
L1508:
	.byte	$42,$52,$49,$41,$4E,$20,$26,$20,$41,$4C,$41,$4E,$20,$47,$41,$4D
	.byte	$45,$53,$00
L14F4:
	.byte	$4E,$4F,$41,$48,$20,$56,$53,$2E,$20,$41,$54,$52,$41,$48,$41,$53
	.byte	$49,$53,$00
L170C:
	.byte	$53,$45,$4C,$45,$43,$54,$20,$53,$54,$41,$47,$45,$00
L171B	:=	L170C+0
L14FE:
	.byte	$4F,$4E,$45,$20,$4F,$4E,$20,$4F,$4E,$45,$00
L1731:
	.byte	$20,$20,$20,$47,$49,$52,$41,$46,$45,$00
L1746:
	.byte	$58,$20,$20,$47,$49,$52,$41,$46,$45,$00
L173C:
	.byte	$20,$20,$20,$42,$45,$41,$52,$00
L1727:
	.byte	$58,$20,$20,$42,$45,$41,$52,$00

.segment	"BSS"

_bankLevel:
	.res	1,$00
_bankBuffer:
	.res	10,$00
.segment	"ZEROPAGE"
_direction:
	.res	1,$00
_direction_y:
	.res	1,$00
_arg1:
	.res	1,$00
_arg2:
	.res	1,$00
_pad1:
	.res	1,$00
_pad1_new:
	.res	1,$00
_pad1_state:
	.res	1,$00
_char_state:
	.res	1,$00
_song:
	.res	1,$00
_sound:
	.res	1,$00
_game_mode:
	.res	1,$00
_selected_stage:
	.res	1,$00
_temp_x:
	.res	2,$00
_temp_y:
	.res	2,$00
_temp_sprite:
	.res	2,$00
_old_x:
	.res	1,$00
_old_y:
	.res	1,$00
_player_in_air:
	.res	1,$00
_player_is_sliding:
	.res	1,$00
_player_is_running:
	.res	1,$00
_player_on_ladder:
	.res	1,$00
_player_on_ladder_pose:
	.res	1,$00
_player_on_ladder_top:
	.res	1,$00
_player_in_hitstun:
	.res	1,$00
_falling_down:
	.res	1,$00
_multi_jump:
	.res	1,$00
_multi_jump_max:
	.res	1,$00
_short_jump_count:
	.res	1,$00
_player_shooting:
	.res	1,$00
_projectile_cooldown:
	.res	1,$00
_projectile_index:
	.res	1,$00
_hit_direction:
	.res	1,$00
_eject_L:
	.res	1,$00
_eject_R:
	.res	1,$00
_eject_D:
	.res	1,$00
_eject_U:
	.res	1,$00
_collision_L:
	.res	1,$00
_collision_R:
	.res	1,$00
_collision_U:
	.res	1,$00
_collision_D:
	.res	1,$00
_coordinates:
	.res	1,$00
_location_with_scroll:
	.res	2,$00
_collision:
	.res	1,$00
_map_loaded:
	.res	1,$00
_scrolling_direction:
	.res	1,$00
_nametable_to_load:
	.res	1,$00
_offset:
	.res	1,$00
_address:
	.res	2,$00
_x:
	.res	1,$00
_y:
	.res	1,$00
_nt:
	.res	1,$00
_index:
	.res	1,$00
_map:
	.res	1,$00
_scroll_x:
	.res	2,$00
_scroll_y:
	.res	2,$00
_max_rooms:
	.res	1,$00
_max_scroll:
	.res	2,$00
_temp_room:
	.res	1,$00
_scroll_count:
	.res	1,$00
_pseudo_scroll_x:
	.res	2,$00
.segment	"BSS"
_c_map:
	.res	240,$00
_c_map2:
	.res	240,$00
_temp1:
	.res	2,$00
_temp2:
	.res	2,$00
_temp3:
	.res	2,$00
_l_scroll_frames:
	.res	1,$00
_r_scroll_frames:
	.res	1,$00
_Generic:
	.res	4,$00
_Generic2:
	.res	4,$00
.segment	"XRAM"
_wram_array:
	.res	8192,$00

; ---------------------------------------------------------------
; void __near__ banked_call (unsigned char, __near__ __near__ function returning void *)
; ---------------------------------------------------------------

.segment	"CODE"

.proc	_banked_call: near

.segment	"CODE"

;
; void banked_call(unsigned char bankId, void (*method)(void)) {
;
	jsr     pushax
;
; bank_push(bankId);
;
	ldy     #$02
	lda     (sp),y
	jsr     _bank_push
;
; (*method)();
;
	ldy     #$01
	lda     (sp),y
	tax
	dey
	lda     (sp),y
	jsr     callax
;
; bank_pop();
;
	jsr     _bank_pop
;
; }
;
	jmp     incsp3

.endproc

; ---------------------------------------------------------------
; void __near__ bank_push (unsigned char)
; ---------------------------------------------------------------

.segment	"CODE"

.proc	_bank_push: near

.segment	"CODE"

;
; void bank_push(unsigned char bankId) {
;
	jsr     pusha
;
; bankBuffer[bankLevel] = get_prg_bank();
;
	lda     #<(_bankBuffer)
	ldx     #>(_bankBuffer)
	clc
	adc     _bankLevel
	bcc     L000B
	inx
L000B:	jsr     pushax
	jsr     _get_prg_bank
	ldy     #$00
	jsr     staspidx
;
; ++bankLevel;
;
	inc     _bankLevel
;
; set_prg_bank(bankId);
;
	ldy     #$00
	lda     (sp),y
	jsr     _set_prg_bank
;
; }
;
	jmp     incsp1

.endproc

; ---------------------------------------------------------------
; void __near__ bank_pop (void)
; ---------------------------------------------------------------

.segment	"CODE"

.proc	_bank_pop: near

.segment	"CODE"

;
; if (bankLevel != 0) {
;
	lda     _bankLevel
	beq     L0011
;
; --bankLevel;
;
	dec     _bankLevel
;
; set_prg_bank(bankBuffer[bankLevel]);
;
	ldy     _bankLevel
	lda     _bankBuffer,y
	jmp     _set_prg_bank
;
; }
;
L0011:	rts

.endproc

; ---------------------------------------------------------------
; unsigned char __near__ bg_collision_sub (void)
; ---------------------------------------------------------------

.segment	"BANK0"

.proc	_bg_collision_sub: near

.segment	"BANK0"

;
; if (temp_y >= 0xf0)
;
	lda     _temp_y
	cmp     #$F0
	lda     _temp_y+1
	sbc     #$00
	bcc     L015B
;
; return 0;
;
	ldx     #$00
	txa
	rts
;
; coordinates = (temp_x >> 4) + (temp_y & 0xf0);
;
L015B:	lda     _temp_x
	ldx     _temp_x+1
	jsr     shrax4
	sta     ptr1
	lda     _temp_y
	and     #$F0
	clc
	adc     ptr1
	sta     _coordinates
;
; map = temp_room & 1; // high byte
;
	lda     _temp_room
	and     #$01
	sta     _map
;
; if (!map)
;
	lda     _map
	bne     L0164
;
; collision = c_map[coordinates];
;
	ldy     _coordinates
	lda     _c_map,y
;
; else
;
	jmp     L17C3
;
; collision = c_map2[coordinates];
;
L0164:	ldy     _coordinates
	lda     _c_map2,y
L17C3:	sta     _collision
;
; return metatile_colision_map[collision];
;
	ldy     _collision
	ldx     #$00
	lda     _metatile_colision_map,y
;
; }
;
	rts

.endproc

; ---------------------------------------------------------------
; void __near__ bg_collision_fast (void)
; ---------------------------------------------------------------

.segment	"BANK0"

.proc	_bg_collision_fast: near

.segment	"BANK0"

;
; collision_L = 0;
;
	lda     #$00
	sta     _collision_L
;
; collision_R = 0;
;
	sta     _collision_R
;
; collision_D = 0;
;
	sta     _collision_D
;
; if (Generic.y >= 0xf0)
;
	lda     _Generic+1
	cmp     #$F0
;
; return;
;
	bcc     L17C7
;
; }
;
	rts
;
; location_with_scroll = Generic.x + scroll_x;
;
L17C7:	lda     _Generic
	clc
	adc     _scroll_x
	pha
	lda     #$00
	adc     _scroll_x+1
	sta     _location_with_scroll+1
	pla
	sta     _location_with_scroll
;
; temp_x = location_with_scroll & 0xff;  // low byte x
;
	ldx     #$00
	sta     _temp_x
	stx     _temp_x+1
;
; temp_room = location_with_scroll >> 8; // high byte x
;
	lda     _location_with_scroll+1
	sta     _temp_room
;
; temp_y = Generic.y + 6; // y middle
;
	lda     _Generic+1
	clc
	adc     #$06
	bcc     L0183
	inx
L0183:	sta     _temp_y
	stx     _temp_y+1
;
; bg_collision_sub();
;
	jsr     _bg_collision_sub
;
; if (bg_collision_sub() & COL_ALL)
;
	jsr     _bg_collision_sub
	and     #$40
	beq     L17C5
;
; ++collision_L;
;
	inc     _collision_L
;
; location_with_scroll += Generic.width;
;
L17C5:	lda     _Generic+2
	clc
	adc     _location_with_scroll
	sta     _location_with_scroll
	lda     #$00
	adc     _location_with_scroll+1
	sta     _location_with_scroll+1
;
; temp_x = location_with_scroll & 0xff;  // low byte x
;
	lda     #$00
	sta     _temp_x+1
	lda     _location_with_scroll
	sta     _temp_x
;
; temp_room = location_with_scroll >> 8; // high byte x
;
	lda     _location_with_scroll+1
	sta     _temp_room
;
; bg_collision_sub();
;
	jsr     _bg_collision_sub
;
; if (bg_collision_sub() & COL_ALL)
;
	jsr     _bg_collision_sub
	and     #$40
	beq     L17C6
;
; ++collision_R;
;
	inc     _collision_R
;
; location_with_scroll -= (Generic.width >> 1); // middle of character
;
L17C6:	lda     _Generic+2
	lsr     a
	eor     #$FF
	sec
	adc     _location_with_scroll
	sta     _location_with_scroll
	lda     #$FF
	adc     _location_with_scroll+1
	sta     _location_with_scroll+1
;
; temp_x = (char)location_with_scroll;          // low byte
;
	lda     #$00
	sta     _temp_x+1
	lda     _location_with_scroll
	sta     _temp_x
;
; temp_y += 6;
;
	lda     #$06
	clc
	adc     _temp_y
	sta     _temp_y
	bcc     L0199
	inc     _temp_y+1
;
; if (bg_collision_sub() & COL_ALL)
;
L0199:	jsr     _bg_collision_sub
	and     #$40
	beq     L019A
;
; ++collision_D;
;
	inc     _collision_D
;
; }
;
L019A:	rts

.endproc

; ---------------------------------------------------------------
; unsigned char __near__ bg_coll_L (void)
; ---------------------------------------------------------------

.segment	"BANK0"

.proc	_bg_coll_L: near

.segment	"BANK0"

;
; location_with_scroll = Generic.x + scroll_x;
;
	lda     _Generic
	clc
	adc     _scroll_x
	sta     _location_with_scroll
	lda     #$00
	adc     _scroll_x+1
	sta     _location_with_scroll+1
;
; temp_x = (char)location_with_scroll;   // low byte
;
	lda     #$00
	sta     _temp_x+1
	lda     _location_with_scroll
	sta     _temp_x
;
; temp_room = location_with_scroll >> 8; // high byte
;
	lda     _location_with_scroll+1
	sta     _temp_room
;
; eject_L = temp_x | 0xf0;
;
	lda     _temp_x
	ora     #$F0
	sta     _eject_L
;
; temp_y = Generic.y + 2;
;
	ldx     #$00
	lda     _Generic+1
	clc
	adc     #$02
	bcc     L01A8
	inx
L01A8:	sta     _temp_y
	stx     _temp_y+1
;
; if (bg_collision_sub() & COL_ALL)
;
	jsr     _bg_collision_sub
	ldx     #$00
	and     #$40
	beq     L17C9
;
; return 1;
;
	lda     #$01
	rts
;
; temp_y = Generic.y + Generic.height;
;
L17C9:	lda     _Generic+1
	clc
	adc     _Generic+3
	bcc     L17C8
	inx
L17C8:	sta     _temp_y
	stx     _temp_y+1
;
; temp_y -= 2;
;
	lda     _temp_y
	sec
	sbc     #$02
	sta     _temp_y
	bcs     L01B0
	dec     _temp_y+1
;
; if (bg_collision_sub() & COL_ALL)
;
L01B0:	jsr     _bg_collision_sub
	ldx     #$00
	and     #$40
	beq     L17CB
;
; return 1;
;
	lda     #$01
	rts
;
; }
;
L17CB:	rts

.endproc

; ---------------------------------------------------------------
; unsigned char __near__ bg_coll_R (void)
; ---------------------------------------------------------------

.segment	"BANK0"

.proc	_bg_coll_R: near

.segment	"BANK0"

;
; location_with_scroll = Generic.x + scroll_x + Generic.width;
;
	lda     _Generic
	clc
	adc     _scroll_x
	pha
	lda     #$00
	adc     _scroll_x+1
	tax
	pla
	clc
	adc     _Generic+2
	bcc     L17CC
	inx
L17CC:	sta     _location_with_scroll
	stx     _location_with_scroll+1
;
; temp_x = (char)location_with_scroll;   // low byte
;
	lda     #$00
	sta     _temp_x+1
	lda     _location_with_scroll
	sta     _temp_x
;
; temp_room = location_with_scroll >> 8; // high byte
;
	lda     _location_with_scroll+1
	sta     _temp_room
;
; eject_R = (temp_x + 1) & 0x0f;
;
	lda     _temp_x
	clc
	adc     #$01
	and     #$0F
	sta     _eject_R
;
; temp_y = Generic.y + 2;
;
	ldx     #$00
	lda     _Generic+1
	clc
	adc     #$02
	bcc     L01C2
	inx
L01C2:	sta     _temp_y
	stx     _temp_y+1
;
; if (bg_collision_sub() & COL_ALL)
;
	jsr     _bg_collision_sub
	ldx     #$00
	and     #$40
	beq     L17CE
;
; return 1;
;
	lda     #$01
	rts
;
; temp_y = Generic.y + Generic.height;
;
L17CE:	lda     _Generic+1
	clc
	adc     _Generic+3
	bcc     L17CD
	inx
L17CD:	sta     _temp_y
	stx     _temp_y+1
;
; temp_y -= 2;
;
	lda     _temp_y
	sec
	sbc     #$02
	sta     _temp_y
	bcs     L01CA
	dec     _temp_y+1
;
; if (bg_collision_sub() & COL_ALL)
;
L01CA:	jsr     _bg_collision_sub
	ldx     #$00
	and     #$40
	beq     L17D0
;
; return 1;
;
	lda     #$01
	rts
;
; }
;
L17D0:	rts

.endproc

; ---------------------------------------------------------------
; unsigned char __near__ bg_coll_ladder (void)
; ---------------------------------------------------------------

.segment	"BANK0"

.proc	_bg_coll_ladder: near

.segment	"BANK0"

;
; location_with_scroll = Generic.x + scroll_x + 7;
;
	lda     _Generic
	clc
	adc     _scroll_x
	pha
	lda     #$00
	adc     _scroll_x+1
	tax
	pla
	clc
	adc     #$07
	bcc     L01D2
	inx
L01D2:	sta     _location_with_scroll
	stx     _location_with_scroll+1
;
; temp_x = (char)location_with_scroll; // low byte
;
	lda     #$00
	sta     _temp_x+1
	lda     _location_with_scroll
	sta     _temp_x
;
; temp_y = Generic.y + Generic.height;
;
	ldx     #$00
	lda     _Generic+1
	clc
	adc     _Generic+3
	bcc     L17D1
	inx
L17D1:	sta     _temp_y
	stx     _temp_y+1
;
; temp_y -= 2;
;
	lda     _temp_y
	sec
	sbc     #$02
	sta     _temp_y
	bcs     L01D9
	dec     _temp_y+1
;
; if (bg_collision_sub() & COL_LADDER || bg_collision_sub() & COL_LADDER_TOP)
;
L01D9:	jsr     _bg_collision_sub
	and     #$01
	bne     L17D2
	jsr     _bg_collision_sub
	and     #$02
	bne     L17D2
	tax
	rts
;
; return location_with_scroll;
;
L17D2:	ldx     #$00
	lda     _location_with_scroll
	rts

.endproc

; ---------------------------------------------------------------
; unsigned char __near__ bg_coll_ladder_top_at_player (void)
; ---------------------------------------------------------------

.segment	"BANK0"

.proc	_bg_coll_ladder_top_at_player: near

.segment	"BANK0"

;
; location_with_scroll = Generic.x + scroll_x + 7;
;
	lda     _Generic
	clc
	adc     _scroll_x
	pha
	lda     #$00
	adc     _scroll_x+1
	tax
	pla
	clc
	adc     #$07
	bcc     L01E2
	inx
L01E2:	sta     _location_with_scroll
	stx     _location_with_scroll+1
;
; temp_x = (char)location_with_scroll; // low byte
;
	lda     #$00
	sta     _temp_x+1
	lda     _location_with_scroll
	sta     _temp_x
;
; temp_y = Generic.y + Generic.height;
;
	ldx     #$00
	lda     _Generic+1
	clc
	adc     _Generic+3
	bcc     L17D5
	inx
L17D5:	sta     _temp_y
	stx     _temp_y+1
;
; temp_y -= 2;
;
	lda     _temp_y
	sec
	sbc     #$02
	sta     _temp_y
	bcs     L01E9
	dec     _temp_y+1
;
; if (bg_collision_sub() & COL_LADDER)
;
L01E9:	jsr     _bg_collision_sub
	ldx     #$00
	and     #$01
	beq     L17D7
;
; return 1;
;
	lda     #$01
	rts
;
; }
;
L17D7:	rts

.endproc

; ---------------------------------------------------------------
; unsigned char __near__ bg_coll_ladder_top_under_player (void)
; ---------------------------------------------------------------

.segment	"BANK0"

.proc	_bg_coll_ladder_top_under_player: near

.segment	"BANK0"

;
; location_with_scroll = Generic.x + scroll_x + 7;
;
	lda     _Generic
	clc
	adc     _scroll_x
	pha
	lda     #$00
	adc     _scroll_x+1
	tax
	pla
	clc
	adc     #$07
	bcc     L01F1
	inx
L01F1:	sta     _location_with_scroll
	stx     _location_with_scroll+1
;
; temp_x = (char)location_with_scroll; // low byte
;
	lda     #$00
	sta     _temp_x+1
	lda     _location_with_scroll
	sta     _temp_x
;
; temp_y = Generic.y + Generic.height;
;
	ldx     #$00
	lda     _Generic+1
	clc
	adc     _Generic+3
	bcc     L17D8
	inx
L17D8:	sta     _temp_y
	stx     _temp_y+1
;
; temp_y += 4;
;
	lda     #$04
	clc
	adc     _temp_y
	sta     _temp_y
	bcc     L01F8
	inc     _temp_y+1
;
; if (bg_collision_sub() & COL_LADDER_TOP)
;
L01F8:	jsr     _bg_collision_sub
	ldx     #$00
	and     #$02
	beq     L17DA
;
; return 1;
;
	lda     #$01
	rts
;
; }
;
L17DA:	rts

.endproc

; ---------------------------------------------------------------
; unsigned char __near__ bg_coll_U (void)
; ---------------------------------------------------------------

.segment	"BANK0"

.proc	_bg_coll_U: near

.segment	"BANK0"

;
; location_with_scroll = Generic.x + scroll_x;
;
	lda     _Generic
	clc
	adc     _scroll_x
	sta     _location_with_scroll
	lda     #$00
	adc     _scroll_x+1
	sta     _location_with_scroll+1
;
; location_with_scroll += 2;
;
	lda     #$02
	clc
	adc     _location_with_scroll
	sta     _location_with_scroll
	bcc     L0202
	inc     _location_with_scroll+1
;
; temp_x = (char)location_with_scroll;   // low byte
;
L0202:	lda     #$00
	sta     _temp_x+1
	lda     _location_with_scroll
	sta     _temp_x
;
; temp_room = location_with_scroll >> 8; // high byte
;
	lda     _location_with_scroll+1
	sta     _temp_room
;
; temp_y = Generic.y;
;
	lda     #$00
	sta     _temp_y+1
	lda     _Generic+1
	sta     _temp_y
;
; eject_U = temp_y | 0xf0;
;
	ora     #$F0
	sta     _eject_U
;
; if (bg_collision_sub() & COL_ALL)
;
	jsr     _bg_collision_sub
	and     #$40
	beq     L17DC
;
; return 1;
;
	ldx     #$00
	lda     #$01
	rts
;
; location_with_scroll = Generic.x + scroll_x + Generic.width;
;
L17DC:	lda     _Generic
	clc
	adc     _scroll_x
	pha
	lda     #$00
	adc     _scroll_x+1
	tax
	pla
	clc
	adc     _Generic+2
	bcc     L17DB
	inx
L17DB:	sta     _location_with_scroll
	stx     _location_with_scroll+1
;
; location_with_scroll -= 2;
;
	lda     _location_with_scroll
	sec
	sbc     #$02
	sta     _location_with_scroll
	bcs     L0212
	dec     _location_with_scroll+1
;
; temp_x = (char)location_with_scroll;   // low byte
;
L0212:	lda     #$00
	sta     _temp_x+1
	lda     _location_with_scroll
	sta     _temp_x
;
; temp_room = location_with_scroll >> 8; // high byte
;
	lda     _location_with_scroll+1
	sta     _temp_room
;
; if (bg_collision_sub() & COL_ALL)
;
	jsr     _bg_collision_sub
	ldx     #$00
	and     #$40
	beq     L17DE
;
; return 1;
;
	lda     #$01
	rts
;
; }
;
L17DE:	rts

.endproc

; ---------------------------------------------------------------
; unsigned char __near__ bg_coll_D (void)
; ---------------------------------------------------------------

.segment	"BANK0"

.proc	_bg_coll_D: near

.segment	"BANK0"

;
; location_with_scroll = Generic.x + scroll_x;
;
	lda     _Generic
	clc
	adc     _scroll_x
	sta     _location_with_scroll
	lda     #$00
	adc     _scroll_x+1
	sta     _location_with_scroll+1
;
; temp_x = (char)location_with_scroll;   // low byte
;
	lda     #$00
	sta     _temp_x+1
	lda     _location_with_scroll
	sta     _temp_x
;
; temp_room = location_with_scroll >> 8; // high byte
;
	lda     _location_with_scroll+1
	sta     _temp_room
;
; temp_y = Generic.y + Generic.height;
;
	ldx     #$00
	lda     _Generic+1
	clc
	adc     _Generic+3
	bcc     L17DF
	inx
L17DF:	sta     _temp_y
	stx     _temp_y+1
;
; if ((temp_y & 0x0f) > 3)
;
	and     #$0F
	cmp     #$04
	lda     #$00
	bcc     L0224
;
; return 0; // bug fix
;
	tax
	rts
;
; eject_D = (temp_y + 1) & 0x0f;
;
L0224:	lda     _temp_y
	clc
	adc     #$01
	and     #$0F
	sta     _eject_D
;
; if (bg_collision_sub() & COL_ALL || ((bg_collision_sub() & COL_LADDER_TOP)))
;
	jsr     _bg_collision_sub
	and     #$40
	bne     L17E2
	jsr     _bg_collision_sub
	and     #$02
	beq     L17E3
;
; return 1;
;
L17E2:	ldx     #$00
	lda     #$01
	rts
;
; location_with_scroll = Generic.x + scroll_x + Generic.width;
;
L17E3:	lda     _Generic
	clc
	adc     _scroll_x
	pha
	lda     #$00
	adc     _scroll_x+1
	tax
	pla
	clc
	adc     _Generic+2
	bcc     L17E0
	inx
L17E0:	sta     _location_with_scroll
	stx     _location_with_scroll+1
;
; location_with_scroll -= 2;
;
	lda     _location_with_scroll
	sec
	sbc     #$02
	sta     _location_with_scroll
	bcs     L0236
	dec     _location_with_scroll+1
;
; temp_x = (char)location_with_scroll;   // low byte
;
L0236:	lda     #$00
	sta     _temp_x+1
	lda     _location_with_scroll
	sta     _temp_x
;
; temp_room = location_with_scroll >> 8; // high byte
;
	lda     _location_with_scroll+1
	sta     _temp_room
;
; if (bg_collision_sub() & COL_ALL || ((bg_collision_sub() & COL_LADDER_TOP)))
;
	jsr     _bg_collision_sub
	and     #$40
	bne     L17E4
	jsr     _bg_collision_sub
	and     #$02
	bne     L17E4
	tax
	rts
;
; return 1;
;
L17E4:	ldx     #$00
	lda     #$01
	rts

.endproc

; ---------------------------------------------------------------
; void __near__ movement (void)
; ---------------------------------------------------------------

.segment	"BANK0"

.proc	_movement: near

.segment	"BANK0"

;
; if (player_in_hitstun)
;
	lda     _player_in_hitstun
	beq     L0243
;
; --player_in_hitstun;
;
	dec     _player_in_hitstun
;
; if (player_in_hitstun > 0)
;
L0243:	lda     _player_in_hitstun
	beq     L17ED
;
; if (hit_direction == RIGHT)
;
	lda     _hit_direction
	cmp     #$01
	bne     L0248
;
; Player1.vel_x += HITSTUN_DECEL;
;
	lda     #$2D
	clc
	adc     _Player1+4
	sta     _Player1+4
	bcc     L024C
	inc     _Player1+4+1
;
; if (Player1.vel_x >= MAX_SPEED)
;
L024C:	lda     _Player1+4
	cmp     #$60
	lda     _Player1+4+1
	sbc     #$01
	bvs     L024F
	eor     #$80
L024F:	bpl     L17ED
;
; Player1.vel_x = MAX_SPEED;
;
	ldx     #$01
	lda     #$60
;
; else
;
	jmp     L1821
;
; Player1.vel_x -= HITSTUN_DECEL;
;
L0248:	lda     _Player1+4
	sec
	sbc     #$2D
	sta     _Player1+4
	bcs     L0255
	dec     _Player1+4+1
;
; if (Player1.vel_x < -MAX_SPEED)
;
L0255:	lda     _Player1+4
	cmp     #$A0
	lda     _Player1+4+1
	sbc     #$FE
	bvc     L0258
	eor     #$80
L0258:	bpl     L17ED
;
; Player1.vel_x = -MAX_SPEED;
;
	ldx     #$FE
	lda     #$A0
L1821:	sta     _Player1+4
	stx     _Player1+4+1
;
; old_x = Player1.x;
;
L17ED:	lda     _Player1
	sta     _old_x
;
; if (pad1 & PAD_LEFT && !player_in_hitstun && !player_is_sliding)
;
	lda     _pad1
	and     #$02
	beq     L17F1
	lda     _player_in_hitstun
	bne     L17F1
	lda     _player_is_sliding
	bne     L17F1
;
; direction = LEFT;
;
	sta     _direction
;
; player_is_running = 1;
;
	lda     #$01
	sta     _player_is_running
;
; if (!player_on_ladder)
;
	lda     _player_on_ladder
	jne     L17F9
;
; if (Player1.vel_x >= DECEL)
;
	lda     _Player1+4
	cmp     #$32
	lda     _Player1+4+1
	sbc     #$00
	bvs     L0269
	eor     #$80
L0269:	bpl     L0267
;
; Player1.vel_x -= DECEL;
;
	lda     _Player1+4
	sec
	sbc     #$32
	sta     _Player1+4
	jcs     L17F9
	dec     _Player1+4+1
;
; else if (Player1.vel_x > 0)
;
	jmp     L17F9
L0267:	lda     _Player1+4
	cmp     #$01
	lda     _Player1+4+1
	sbc     #$00
	bvs     L0270
	eor     #$80
L0270:	bpl     L026E
;
; Player1.vel_x = 0;
;
	ldx     #$00
	txa
;
; else
;
	jmp     L17F8
;
; Player1.vel_x -= ACCEL;
;
L026E:	lda     _Player1+4
	sec
	sbc     #$1E
	sta     _Player1+4
	bcs     L0276
	dec     _Player1+4+1
;
; if (Player1.vel_x < -MAX_SPEED)
;
L0276:	lda     _Player1+4
	cmp     #$A0
	lda     _Player1+4+1
	sbc     #$FE
	bvc     L0279
	eor     #$80
L0279:	jpl     L17F9
;
; Player1.vel_x = -MAX_SPEED;
;
	ldx     #$FE
	lda     #$A0
;
; else if (pad1 & PAD_RIGHT && !player_in_hitstun && !player_is_sliding)
;
	jmp     L17F8
L17F1:	lda     _pad1
	and     #$01
	beq     L17F6
	lda     _player_in_hitstun
	bne     L17F2
	lda     _player_is_sliding
	beq     L17F4
L17F2:	lda     #$00
	jmp     L17F6
;
; direction = RIGHT;
;
L17F4:	lda     #$01
	sta     _direction
;
; player_is_running = 1;
;
	sta     _player_is_running
;
; if (!player_on_ladder)
;
	lda     _player_on_ladder
	jne     L17F9
;
; if (Player1.vel_x <= DECEL)
;
	lda     _Player1+4
	cmp     #$33
	lda     _Player1+4+1
	sbc     #$00
	bvc     L0289
	eor     #$80
L0289:	bpl     L0287
;
; Player1.vel_x += DECEL;
;
	lda     #$32
	clc
	adc     _Player1+4
	sta     _Player1+4
	jcc     L17F9
	inc     _Player1+4+1
;
; else if (Player1.vel_x < 0)
;
	jmp     L17F9
L0287:	ldx     _Player1+4+1
	cpx     #$80
	bcc     L028E
;
; Player1.vel_x = 0;
;
	ldx     #$00
	txa
;
; else
;
	jmp     L17F8
;
; Player1.vel_x += ACCEL;
;
L028E:	lda     #$1E
	clc
	adc     _Player1+4
	sta     _Player1+4
	bcc     L0295
	inc     _Player1+4+1
;
; if (Player1.vel_x >= MAX_SPEED)
;
L0295:	lda     _Player1+4
	cmp     #$60
	lda     _Player1+4+1
	sbc     #$01
	bvs     L0298
	eor     #$80
L0298:	bpl     L17F9
;
; Player1.vel_x = MAX_SPEED;
;
	ldx     #$01
	lda     #$60
;
; else
;
	jmp     L17F8
;
; player_is_running = 0;
;
L17F6:	sta     _player_is_running
;
; if (Player1.vel_x >= ACCEL)
;
	lda     _Player1+4
	cmp     #$1E
	lda     _Player1+4+1
	sbc     #$00
	bvs     L02A0
	eor     #$80
L02A0:	bpl     L029E
;
; Player1.vel_x -= ACCEL;
;
	lda     _Player1+4
	sec
	sbc     #$1E
	sta     _Player1+4
	bcs     L17F9
	dec     _Player1+4+1
;
; else if (Player1.vel_x < -ACCEL)
;
	jmp     L17F9
L029E:	lda     _Player1+4
	cmp     #$E2
	lda     _Player1+4+1
	sbc     #$FF
	bvc     L02A7
	eor     #$80
L02A7:	asl     a
	lda     #$00
	tax
	bcc     L17F8
;
; Player1.vel_x += ACCEL;
;
	lda     #$1E
	clc
	adc     _Player1+4
	sta     _Player1+4
	bcc     L17F9
	inc     _Player1+4+1
;
; else
;
	jmp     L17F9
;
; Player1.vel_x = 0;
;
L17F8:	sta     _Player1+4
	stx     _Player1+4+1
;
; if (player_is_sliding > 0)
;
L17F9:	lda     _player_is_sliding
	beq     L02B5
;
; --player_is_sliding;
;
	dec     _player_is_sliding
;
; if (direction == LEFT)
;
	lda     _direction
	bne     L02B1
;
; Player1.vel_x = -MAX_SLIDE_SPEED;
;
	ldx     #$FE
;
; else
;
	jmp     L1825
;
; Player1.vel_x = MAX_SLIDE_SPEED;
;
L02B1:	ldx     #$01
L1825:	lda     #$80
	sta     _Player1+4
	stx     _Player1+4+1
;
; Player1.x += Player1.vel_x;
;
L02B5:	lda     _Player1+4
	clc
	adc     _Player1
	sta     _Player1
	lda     _Player1+4+1
	adc     _Player1+1
	sta     _Player1+1
;
; if (Player1.x > 0xf000)
;
	lda     _Player1
	cmp     #$01
	lda     _Player1+1
	sbc     #$F0
	bcc     L17FB
;
; Player1.x = 0x0000; // max left
;
	lda     #$00
	sta     _Player1
	sta     _Player1+1
;
; Player1.vel_x = 0;
;
	sta     _Player1+4
	sta     _Player1+4+1
;
; Generic.x = high_byte(Player1.x);
;
L17FB:	lda     _Player1+1
	sta     _Generic
;
; Generic.y = high_byte(Player1.y);
;
	lda     _Player1+3
	sta     _Generic+1
;
; Generic.width = HERO_WIDTH;
;
	lda     #$0B
	sta     _Generic+2
;
; Generic.height = HERO_HEIGHT;
;
	lda     #$14
	sta     _Generic+3
;
; if (Player1.vel_x < 0)
;
	ldx     _Player1+4+1
	cpx     #$80
	bcc     L02CF
;
; if (bg_coll_L())
;
	jsr     _bg_coll_L
	tax
	beq     L02E9
;
; high_byte(Player1.x) = high_byte(Player1.x) - eject_L;
;
	lda     _Player1+1
	sec
	sbc     _eject_L
	sta     _Player1+1
;
; Player1.vel_x = 0;
;
	lda     #$00
	sta     _Player1+4
	sta     _Player1+4+1
;
; if (Player1.x > 0xf000)
;
	lda     _Player1
	cmp     #$01
	lda     _Player1+1
	sbc     #$F0
	bcc     L02E9
;
; Player1.x = 0xf000;
;
	ldx     #$F0
;
; else if (Player1.vel_x > 0)
;
	jmp     L1826
L02CF:	lda     _Player1+4
	cmp     #$01
	lda     _Player1+4+1
	sbc     #$00
	bvs     L02E0
	eor     #$80
L02E0:	bpl     L02E9
;
; if (bg_coll_R())
;
	jsr     _bg_coll_R
	tax
	beq     L02E9
;
; high_byte(Player1.x) = high_byte(Player1.x) - eject_R;
;
	lda     _Player1+1
	sec
	sbc     _eject_R
	sta     _Player1+1
;
; Player1.vel_x = 0;
;
	lda     #$00
	sta     _Player1+4
	sta     _Player1+4+1
;
; if (Player1.x > 0xf000)
;
	lda     _Player1
	cmp     #$01
	lda     _Player1+1
	sbc     #$F0
	bcc     L02E9
;
; Player1.x = 0x0000;
;
	ldx     #$00
L1826:	lda     #$00
	sta     _Player1
	stx     _Player1+1
;
; if (player_on_ladder && (bg_coll_ladder() || bg_coll_ladder_top_under_player()))
;
L02E9:	lda     _player_on_ladder
	jeq     L02ED
	jsr     _bg_coll_ladder
	tax
	bne     L1800
	jsr     _bg_coll_ladder_top_under_player
	tax
	jeq     L02ED
;
; if (pad1 & PAD_DOWN)
;
L1800:	lda     _pad1
	and     #$04
	beq     L1803
;
; direction_y = DOWN;
;
	lda     #$04
	sta     _direction_y
;
; ++player_on_ladder_pose;
;
	inc     _player_on_ladder_pose
;
; Player1.vel_y += LADDER_ACCEL;
;
	lda     #$14
	clc
	adc     _Player1+6
	sta     _Player1+6
	bcc     L02FA
	inc     _Player1+6+1
;
; if (Player1.vel_y > MAX_LADDER_SPEED)
;
L02FA:	lda     _Player1+6
	cmp     #$01
	lda     _Player1+6+1
	sbc     #$01
	bvs     L02FD
	eor     #$80
L02FD:	asl     a
	lda     #$00
	bcc     L1802
;
; Player1.vel_y = MAX_LADDER_SPEED;
;
	ldx     #$01
	sta     _Player1+6
	stx     _Player1+6+1
;
; player_on_ladder_top = 0;
;
L1802:	sta     _player_on_ladder_top
;
; else if (pad1 & PAD_UP)
;
	jmp     L1808
L1803:	lda     _pad1
	and     #$08
	beq     L1805
;
; direction_y = UP;
;
	lda     #$03
	sta     _direction_y
;
; ++player_on_ladder_pose;
;
	inc     _player_on_ladder_pose
;
; Player1.vel_y -= LADDER_ACCEL;
;
	lda     _Player1+6
	sec
	sbc     #$14
	sta     _Player1+6
	bcs     L030A
	dec     _Player1+6+1
;
; if (Player1.vel_y < -MAX_LADDER_SPEED)
;
L030A:	lda     _Player1+6
	cmp     #$00
	lda     _Player1+6+1
	sbc     #$FF
	bvc     L030D
	eor     #$80
L030D:	bpl     L030B
;
; Player1.vel_y = -MAX_LADDER_SPEED;
;
	ldx     #$FF
	lda     #$00
	sta     _Player1+6
	stx     _Player1+6+1
;
; if (bg_coll_ladder_top_under_player())
;
L030B:	jsr     _bg_coll_ladder_top_under_player
	tax
	jeq     L1808
;
; ++player_on_ladder_top;
;
	inc     _player_on_ladder_top
;
; if (player_on_ladder_top > 10)
;
	lda     _player_on_ladder_top
	cmp     #$0B
	bcc     L1808
;
; if (Player1.vel_y == -MAX_LADDER_SPEED)
;
	lda     _Player1+6+1
	cmp     #$FF
	bne     L0315
	lda     _Player1+6
	bne     L0315
;
; Player1.y -= 0x200;
;
	lda     _Player1+2
	sec
	sbc     #$00
	sta     _Player1+2
	lda     _Player1+2+1
	sbc     #$02
;
; else
;
	jmp     L1824
;
; Player1.y -= 0x800;
;
L0315:	lda     _Player1+2
	sec
	sbc     #$00
	sta     _Player1+2
	lda     _Player1+2+1
	sbc     #$08
L1824:	sta     _Player1+2+1
;
; player_on_ladder_top = 0;
;
	lda     #$00
	sta     _player_on_ladder_top
;
; player_on_ladder = 0;
;
	sta     _player_on_ladder
;
; else
;
	jmp     L1808
;
; Player1.vel_y = 0;
;
L1805:	sta     _Player1+6
	sta     _Player1+6+1
;
; else
;
	jmp     L1808
;
; if (player_on_ladder && bg_coll_ladder_top_under_player())
;
L02ED:	lda     _player_on_ladder
	beq     L0325
	jsr     _bg_coll_ladder_top_under_player
	tax
	beq     L0325
;
; player_on_ladder = 0;
;
	lda     #$00
	sta     _player_on_ladder
;
; if (Player1.vel_y < 0x300)
;
L0325:	lda     _Player1+6
	cmp     #$00
	lda     _Player1+6+1
	sbc     #$03
	bvc     L032D
	eor     #$80
L032D:	bpl     L032B
;
; Player1.vel_y += GRAVITY;
;
	lda     #$3C
	clc
	adc     _Player1+6
	sta     _Player1+6
	bcc     L1808
	inc     _Player1+6+1
;
; else
;
	jmp     L1808
;
; Player1.vel_y = 0x300; // Consistent max gravity
;
L032B:	ldx     #$03
	lda     #$00
	sta     _Player1+6
	stx     _Player1+6+1
;
; if (pad1 & PAD_DOWN)
;
L1808:	lda     _pad1
	and     #$04
	beq     L0338
;
; direction_y = DOWN;
;
	lda     #$04
	sta     _direction_y
;
; if (bg_coll_ladder_top_under_player())
;
	jsr     _bg_coll_ladder_top_under_player
	tax
	beq     L0338
;
; Player1.x = (Player1.x + 0x700) & ~0xF00;
;
	lda     _Player1
	sta     _Player1
	lda     _Player1+1
	clc
	adc     #$07
	and     #$F0
	sta     _Player1+1
;
; player_on_ladder_pose = 0;
;
	lda     #$00
	sta     _player_on_ladder_pose
;
; player_on_ladder = 1;
;
	lda     #$01
	sta     _player_on_ladder
;
; player_in_air = 0;
;
	lda     #$00
	sta     _player_in_air
;
; falling_down = 0;
;
	sta     _falling_down
;
; Player1.vel_y = 0;
;
	sta     _Player1+6
	sta     _Player1+6+1
;
; Player1.vel_x = 0;
;
	sta     _Player1+4
	sta     _Player1+4+1
;
; Player1.y += Player1.vel_y;
;
L0338:	lda     _Player1+6
	clc
	adc     _Player1+2
	sta     _Player1+2
	lda     _Player1+6+1
	adc     _Player1+2+1
	sta     _Player1+2+1
;
; if (Player1.y > 0xf000)
;
	lda     _Player1+2
	cmp     #$01
	lda     _Player1+2+1
	sbc     #$F0
	bcc     L1809
;
; Player1.y = 0x0000;
;
	lda     #$00
	sta     _Player1+2
	sta     _Player1+2+1
;
; Generic.x = high_byte(Player1.x);
;
L1809:	lda     _Player1+1
	sta     _Generic
;
; Generic.y = high_byte(Player1.y);
;
	lda     _Player1+3
	sta     _Generic+1
;
; if (Player1.vel_y > 0)
;
	lda     _Player1+6
	cmp     #$01
	lda     _Player1+6+1
	sbc     #$00
	bvs     L0357
	eor     #$80
L0357:	bpl     L0355
;
; ++falling_down;
;
	inc     _falling_down
;
; if (falling_down > 2 && !player_on_ladder)
;
	lda     _falling_down
	cmp     #$03
	bcc     L0359
	lda     _player_on_ladder
	bne     L0359
;
; player_in_air = 1;
;
	lda     #$01
	sta     _player_in_air
;
; if (bg_coll_D())
;
L0359:	jsr     _bg_coll_D
	tax
	beq     L180E
;
; player_in_air = 0;
;
	lda     #$00
	sta     _player_in_air
;
; falling_down = 0;
;
	sta     _falling_down
;
; multi_jump = 0;
;
	sta     _multi_jump
;
; player_on_ladder = 0;
;
	sta     _player_on_ladder
;
; high_byte(Player1.y) = high_byte(Player1.y) - eject_D;
;
	lda     _Player1+3
	sec
	sbc     _eject_D
	sta     _Player1+3
;
; Player1.y &= 0xff00;
;
	ldx     _Player1+2+1
	lda     #$00
	sta     _Player1+2
	stx     _Player1+2+1
;
; if (Player1.vel_y > 0)
;
	lda     _Player1+6
	cmp     #$01
	lda     _Player1+6+1
	sbc     #$00
	bvs     L0371
	eor     #$80
L0371:	bpl     L180D
;
; Player1.vel_y = 0;
;
	lda     #$00
	sta     _Player1+6
	sta     _Player1+6+1
;
; Player1.on_ground = 1;
;
L180D:	lda     #$01
	sta     _Player1+9
;
; else if (Player1.vel_y < 0)
;
	jmp     L180E
L0355:	ldx     _Player1+6+1
	cpx     #$80
	bcc     L180E
;
; if (bg_coll_U())
;
	jsr     _bg_coll_U
	tax
	beq     L180E
;
; high_byte(Player1.y) = high_byte(Player1.y) - eject_U;
;
	lda     _Player1+3
	sec
	sbc     _eject_U
	sta     _Player1+3
;
; Player1.vel_y = 0;
;
	lda     #$00
	sta     _Player1+6
	sta     _Player1+6+1
;
; Generic.y = high_byte(Player1.y);
;
L180E:	lda     _Player1+3
	sta     _Generic+1
;
; if (projectile_cooldown > 0)
;
	lda     _projectile_cooldown
	beq     L180F
;
; --projectile_cooldown;
;
	dec     _projectile_cooldown
;
; if (pad1_new & PAD_UP || pad1_state & PAD_UP)
;
L180F:	lda     _pad1_new
	and     #$08
	bne     L1810
	lda     _pad1_state
	and     #$08
	beq     L1812
;
; direction_y = UP;
;
L1810:	lda     #$03
	sta     _direction_y
;
; if (!player_on_ladder && bg_coll_ladder())
;
	lda     _player_on_ladder
	bne     L1812
	jsr     _bg_coll_ladder
	tax
	beq     L1812
;
; Player1.x = (Player1.x + 0x700) & ~0xF00;
;
	lda     _Player1
	sta     _Player1
	lda     _Player1+1
	clc
	adc     #$07
	and     #$F0
	sta     _Player1+1
;
; player_on_ladder_pose = 0;
;
	lda     #$00
	sta     _player_on_ladder_pose
;
; player_on_ladder = 1;
;
	lda     #$01
	sta     _player_on_ladder
;
; player_in_air = 0;
;
	lda     #$00
	sta     _player_in_air
;
; falling_down = 0;
;
	sta     _falling_down
;
; Player1.vel_y = 0;
;
	sta     _Player1+6
	sta     _Player1+6+1
;
; Player1.vel_x = 0;
;
	sta     _Player1+4
	sta     _Player1+4+1
;
; if (pad1_state & PAD_DOWN && pad1_new & PAD_A && !player_on_ladder)
;
L1812:	lda     _pad1_state
	and     #$04
	beq     L1816
	lda     _pad1_new
	and     #$80
	beq     L1816
	lda     _player_on_ladder
	bne     L1816
;
; player_is_sliding = 25;
;
	lda     #$19
	sta     _player_is_sliding
;
; else if (pad1_new & PAD_A && !player_in_hitstun && !player_is_sliding)
;
	jmp     L181B
L1816:	lda     _pad1_new
	and     #$80
	beq     L181B
	lda     _player_in_hitstun
	bne     L181B
	lda     _player_is_sliding
	bne     L181B
;
; if (player_on_ladder)
;
	lda     _player_on_ladder
	beq     L03AA
;
; player_on_ladder = 0;
;
	lda     #$00
	sta     _player_on_ladder
;
; player_on_ladder_top = 0;
;
	sta     _player_on_ladder_top
;
; player_in_air = 1;
;
	lda     #$01
;
; else if (bg_coll_D() || multi_jump < multi_jump_max)
;
	jmp     L17EB
L03AA:	jsr     _bg_coll_D
	tax
	bne     L181A
	lda     _multi_jump
	cmp     _multi_jump_max
	bcs     L181B
;
; ++multi_jump;
;
L181A:	inc     _multi_jump
;
; Player1.vel_y = JUMP_VEL;
;
	ldx     #$FA
	lda     #$F0
	sta     _Player1+6
	stx     _Player1+6+1
;
; short_jump_count = 1;
;
	lda     #$01
	sta     _short_jump_count
;
; player_in_air = 1;
;
L17EB:	sta     _player_in_air
;
; if (pad1_new & PAD_B && projectile_cooldown == 0 && !player_in_hitstun && !player_is_sliding)
;
L181B:	lda     _pad1_new
	and     #$40
	jeq     L03D2
	lda     _projectile_cooldown
	jne     L03D2
	lda     _player_in_hitstun
	jne     L03D2
	lda     _player_is_sliding
	jne     L03D2
;
; temp2 = 0;
;
	sta     _temp2
	sta     _temp2+1
;
; for (temp1 = 0; temp1 < MAX_PROJECTILES; ++temp1)
;
	sta     _temp1
	sta     _temp1+1
L03C3:	lda     _temp1+1
	cmp     #$00
	bne     L03CA
	lda     _temp1
	cmp     #$03
L03CA:	bcs     L03C4
;
; if (projectiles_list[temp1] == TURN_OFF)
;
	lda     #<(_projectiles_list)
	sta     ptr1
	lda     #>(_projectiles_list)
	clc
	adc     _temp1+1
	sta     ptr1+1
	ldy     _temp1
	lda     (ptr1),y
	cmp     #$FF
	bne     L03C5
;
; temp2 = 1;
;
	ldx     #$00
	lda     #$01
	sta     _temp2
	stx     _temp2+1
;
; break;
;
	jmp     L03C4
;
; for (temp1 = 0; temp1 < MAX_PROJECTILES; ++temp1)
;
L03C5:	inc     _temp1
	bne     L03C3
	inc     _temp1+1
	jmp     L03C3
;
; if (temp2)
;
L03C4:	lda     _temp2
	ora     _temp2+1
	beq     L03D2
;
; projectile_cooldown = PROJECTILE_COOLDOWN_FRAMES;
;
	lda     #$0A
	sta     _projectile_cooldown
;
; player_shooting = 10;
;
	sta     _player_shooting
;
; projectile_index = temp1;
;
	lda     _temp1
	sta     _projectile_index
;
; if (direction == RIGHT)
;
	lda     _direction
	cmp     #$01
	bne     L03DA
;
; projectiles_list[projectile_index] = RIGHT;
;
	ldy     _projectile_index
;
; else
;
	jmp     L17EC
;
; projectiles_list[projectile_index] = LEFT;
;
L03DA:	ldy     _projectile_index
	lda     #$00
L17EC:	sta     _projectiles_list,y
;
; projectiles_x[projectile_index] = high_byte(Player1.x) + 10;
;
	lda     #<(_projectiles_x)
	ldx     #>(_projectiles_x)
	clc
	adc     _projectile_index
	bcc     L03E7
	inx
L03E7:	sta     ptr1
	stx     ptr1+1
	lda     _Player1+1
	clc
	adc     #$0A
	ldy     #$00
	sta     (ptr1),y
;
; projectiles_y[projectile_index] = high_byte(Player1.y);
;
	ldy     _projectile_index
	lda     _Player1+3
	sta     _projectiles_y,y
;
; if (short_jump_count)
;
L03D2:	lda     _short_jump_count
	beq     L03F3
;
; ++short_jump_count;
;
	inc     _short_jump_count
;
; if (short_jump_count > 30)
;
	lda     _short_jump_count
	cmp     #$1F
	bcc     L03F3
;
; short_jump_count = 0;
;
	lda     #$00
	sta     _short_jump_count
;
; if ((short_jump_count) && ((pad1 & PAD_A) == 0) && (Player1.vel_y < -0x200))
;
L03F3:	lda     _short_jump_count
	beq     L181F
	lda     _pad1
	and     #$80
	bne     L181F
	lda     _Player1+6
	cmp     #$00
	lda     _Player1+6+1
	sbc     #$FE
	bvc     L03FF
	eor     #$80
L03FF:	bmi     L1820
L181F:	rts
;
; Player1.vel_y = -0x200;
;
L1820:	ldx     #$FE
	lda     #$00
	sta     _Player1+6
	stx     _Player1+6+1
;
; short_jump_count = 0;
;
	sta     _short_jump_count
;
; }
;
	rts

.endproc

; ---------------------------------------------------------------
; void __near__ check_player_colision (void)
; ---------------------------------------------------------------

.segment	"BANK0"

.proc	_check_player_colision: near

.segment	"BANK0"

;
; }
;
	rts

.endproc

; ---------------------------------------------------------------
; void __near__ bank0_player_movement (void)
; ---------------------------------------------------------------

.segment	"BANK0"

.proc	_bank0_player_movement: near

.segment	"BANK0"

;
; movement();
;
	jmp     _movement

.endproc

; ---------------------------------------------------------------
; void __near__ bank0_draw_player_sprite (void)
; ---------------------------------------------------------------

.segment	"BANK0"

.proc	_bank0_draw_player_sprite: near

.segment	"BANK0"

;
; temp_x = Player1.x >> 8;
;
	ldx     #$00
	lda     _Player1+1
	sta     _temp_x
	stx     _temp_x+1
;
; temp_y = Player1.y >> 8; 
;
	lda     _Player1+3
	sta     _temp_y
	stx     _temp_y+1
;
; if (player_is_sliding)
;
	lda     _player_is_sliding
	beq     L040D
;
; temp_sprite = noah_slide;
;
	lda     #>(_noah_slide)
	sta     _temp_sprite+1
	lda     #<(_noah_slide)
;
; else
;
	jmp     L1827
;
; temp_sprite = noah_box;
;
L040D:	lda     #>(_noah_box)
	sta     _temp_sprite+1
	lda     #<(_noah_box)
L1827:	sta     _temp_sprite
;
; oam_meta_spr(temp_x, temp_y, temp_sprite);
;
	jsr     decsp2
	lda     _temp_x
	ldy     #$01
	sta     (sp),y
	lda     _temp_y
	dey
	sta     (sp),y
	lda     _temp_sprite
	ldx     _temp_sprite+1
	jsr     _oam_meta_spr
;
; for (temp1 = 0; temp1 < MAX_PROJECTILES; ++temp1)
;
	lda     #$00
	sta     _temp1
	sta     _temp1+1
L0418:	lda     _temp1+1
	cmp     #$00
	bne     L041F
	lda     _temp1
	cmp     #$03
L041F:	bcs     L0419
;
; if (projectiles_list[temp1] != TURN_OFF)
;
	lda     #<(_projectiles_list)
	sta     ptr1
	lda     #>(_projectiles_list)
	clc
	adc     _temp1+1
	sta     ptr1+1
	ldy     _temp1
	lda     (ptr1),y
	cmp     #$FF
	beq     L041A
;
; oam_meta_spr(projectiles_x[temp1], projectiles_y[temp1], projectile);
;
	jsr     decsp2
	lda     #<(_projectiles_x)
	sta     ptr1
	lda     #>(_projectiles_x)
	clc
	adc     _temp1+1
	sta     ptr1+1
	ldy     _temp1
	lda     (ptr1),y
	ldy     #$01
	sta     (sp),y
	lda     #<(_projectiles_y)
	sta     ptr1
	lda     #>(_projectiles_y)
	clc
	adc     _temp1+1
	sta     ptr1+1
	ldy     _temp1
	lda     (ptr1),y
	ldy     #$00
	sta     (sp),y
	lda     #<(_projectile)
	ldx     #>(_projectile)
	jsr     _oam_meta_spr
;
; for (temp1 = 0; temp1 < MAX_PROJECTILES; ++temp1)
;
L041A:	inc     _temp1
	bne     L0418
	inc     _temp1+1
	jmp     L0418
;
; }
;
L0419:	rts

.endproc

; ---------------------------------------------------------------
; void __near__ projectile_movement (void)
; ---------------------------------------------------------------

.segment	"BANK1"

.proc	_projectile_movement: near

.segment	"BANK1"

;
; for (temp1 = 0; temp1 < MAX_PROJECTILES; ++temp1)
;
	lda     #$00
	sta     _temp1
	sta     _temp1+1
L042E:	lda     _temp1+1
	cmp     #$00
	bne     L0435
	lda     _temp1
	cmp     #$03
L0435:	bcc     L182E
;
; }
;
	rts
;
; if (projectiles_list[temp1] != TURN_OFF)
;
L182E:	lda     #<(_projectiles_list)
	sta     ptr1
	lda     #>(_projectiles_list)
	clc
	adc     _temp1+1
	sta     ptr1+1
	ldy     _temp1
	lda     (ptr1),y
	cmp     #$FF
	jeq     L0430
;
; if (projectiles_x[temp1] > 250)
;
	lda     #<(_projectiles_x)
	sta     ptr1
	lda     #>(_projectiles_x)
	clc
	adc     _temp1+1
	sta     ptr1+1
	ldy     _temp1
	lda     (ptr1),y
	cmp     #$FB
	bcc     L043B
;
; projectiles_list[temp1] = TURN_OFF;
;
	lda     #<(_projectiles_list)
	clc
	adc     _temp1
	sta     ptr1
	lda     #>(_projectiles_list)
	adc     _temp1+1
	sta     ptr1+1
	lda     #$FF
	ldy     #$00
;
; else
;
	jmp     L1828
;
; if (projectiles_list[temp1] == RIGHT)
;
L043B:	lda     #<(_projectiles_list)
	sta     ptr1
	lda     #>(_projectiles_list)
	clc
	adc     _temp1+1
	sta     ptr1+1
	ldy     _temp1
	lda     (ptr1),y
	cmp     #$01
	bne     L0442
;
; if ((Player1.x <= MAX_LEFT) && (pad1 & PAD_LEFT))
;
	lda     _Player1+1
	cmp     #$50
	bne     L0448
	lda     _Player1
	cmp     #$01
L0448:	bcs     L0445
	lda     _pad1
	and     #$02
	beq     L0445
;
; projectiles_x[temp1] += PROJECTILE_SPEED_WITH_SCROLL;
;
	lda     #<(_projectiles_x)
	clc
	adc     _temp1
	sta     ptr1
	lda     #>(_projectiles_x)
	adc     _temp1+1
	sta     ptr1+1
	ldy     #$00
	lda     (ptr1),y
	clc
	adc     #$05
;
; else
;
	jmp     L1828
;
; projectiles_x[temp1] += PROJECTILE_SPEED;
;
L0445:	lda     #<(_projectiles_x)
	clc
	adc     _temp1
	sta     ptr1
	lda     #>(_projectiles_x)
	adc     _temp1+1
	sta     ptr1+1
	ldy     #$00
	lda     (ptr1),y
	clc
	adc     #$03
;
; else if (projectiles_list[temp1] == LEFT)
;
	jmp     L1828
L0442:	lda     #<(_projectiles_list)
	sta     ptr1
	lda     #>(_projectiles_list)
	clc
	adc     _temp1+1
	sta     ptr1+1
	ldy     _temp1
	lda     (ptr1),y
	bne     L0430
;
; if ((Player1.x >= MAX_RIGHT) && (pad1 & PAD_RIGHT))
;
	lda     _Player1
	cmp     #$00
	lda     _Player1+1
	sbc     #$90
	bcc     L0457
	lda     _pad1
	and     #$01
	beq     L0457
;
; projectiles_x[temp1] -= PROJECTILE_SPEED_WITH_SCROLL;
;
	lda     #<(_projectiles_x)
	clc
	adc     _temp1
	sta     ptr1
	lda     #>(_projectiles_x)
	adc     _temp1+1
	sta     ptr1+1
	ldy     #$00
	lda     (ptr1),y
	sec
	sbc     #$05
;
; else
;
	jmp     L1828
;
; projectiles_x[temp1] -= PROJECTILE_SPEED;
;
L0457:	lda     #<(_projectiles_x)
	clc
	adc     _temp1
	sta     ptr1
	lda     #>(_projectiles_x)
	adc     _temp1+1
	sta     ptr1+1
	ldy     #$00
	lda     (ptr1),y
	sec
	sbc     #$03
L1828:	sta     (ptr1),y
;
; for (temp1 = 0; temp1 < MAX_PROJECTILES; ++temp1)
;
L0430:	inc     _temp1
	jne     L042E
	inc     _temp1+1
	jmp     L042E

.endproc

; ---------------------------------------------------------------
; void __near__ function_bank1 (void)
; ---------------------------------------------------------------

.segment	"BANK1"

.proc	_function_bank1: near

.segment	"BANK1"

;
; }
;
	rts

.endproc

; ---------------------------------------------------------------
; void __near__ function_bank2 (void)
; ---------------------------------------------------------------

.segment	"BANK2"

.proc	_function_bank2: near

.segment	"BANK2"

;
; }
;
	rts

.endproc

; ---------------------------------------------------------------
; void __near__ drawMetatileBlock (void)
; ---------------------------------------------------------------

.segment	"BANK2"

.proc	_drawMetatileBlock: near

.segment	"BANK2"

;
; address = get_ppu_addr(nt, x, temp_y);
;
	jsr     decsp2
	lda     _nt
	ldy     #$01
	sta     (sp),y
	lda     _x
	dey
	sta     (sp),y
	lda     _temp_y
	jsr     _get_ppu_addr
	sta     _address
	stx     _address+1
;
; index = temp_y + (x >> 4);
;
	lda     _x
	lsr     a
	lsr     a
	lsr     a
	lsr     a
	clc
	adc     _temp_y
	sta     _index
	lda     #$00
	adc     _temp_y+1
;
; buffer_4_mt(address, index); // ppu_address, index to the data
;
	lda     _address
	ldx     _address+1
	jsr     pushax
	lda     _index
	jmp     _buffer_4_mt

.endproc

; ---------------------------------------------------------------
; void __near__ draw_screen_L (void)
; ---------------------------------------------------------------

.segment	"BANK2"

.proc	_draw_screen_L: near

.segment	"BANK2"

;
; pseudo_scroll_x = scroll_x - 0x20;
;
	lda     _scroll_x
	ldx     _scroll_x+1
	sec
	sbc     #$20
	bcs     L129B
	dex
L129B:	sta     _pseudo_scroll_x
	stx     _pseudo_scroll_x+1
;
; offset = (pseudo_scroll_x >> 8);
;
	lda     _pseudo_scroll_x+1
	sta     _offset
;
; if (offset >= levels_per_stage[current_stage] || offset < 0) {
;
	lda     _offset
	jsr     pusha0
	ldy     _current_stage
	lda     _levels_per_stage,y
	jsr     tosicmp0
	bcc     L183A
;
; offset = 0;
;
	lda     #$00
	sta     _offset
;
; set_data_pointer(stage_table[current_stage][offset]);
;
L183A:	ldx     #$00
	lda     _current_stage
	asl     a
	bcc     L1832
	inx
	clc
L1832:	adc     #<(_stage_table)
	sta     ptr1
	txa
	adc     #>(_stage_table)
	sta     ptr1+1
	ldy     #$01
	lda     (ptr1),y
	tax
	dey
	lda     (ptr1),y
	sta     ptr1
	stx     ptr1+1
	ldx     #$00
	lda     _offset
	asl     a
	bcc     L1833
	inx
	clc
L1833:	adc     ptr1
	sta     ptr1
	txa
	adc     ptr1+1
	sta     ptr1+1
	iny
	lda     (ptr1),y
	tax
	dey
	lda     (ptr1),y
	jsr     _set_data_pointer
;
; nt = ((pseudo_scroll_x >> 8) & 1);
;
	lda     _pseudo_scroll_x+1
	and     #$01
	sta     _nt
;
; x = pseudo_scroll_x & 0xff;
;
	lda     _pseudo_scroll_x
	sta     _x
;
; switch (scroll_count)
;
	ldx     #$00
	lda     _scroll_count
;
; }
;
	beq     L1836
	cmp     #$01
	beq     L1837
	cmp     #$02
	beq     L1838
	jmp     L1839
;
; temp_y = 0;
;
L1836:	sta     _temp_y
	sta     _temp_y+1
;
; drawMetatileBlock();
;
	jsr     _drawMetatileBlock
;
; temp_y = 0x20;
;
	ldx     #$00
	lda     #$20
;
; break;
;
	jmp     L183C
;
; temp_y = 0x40;
;
L1837:	lda     #$40
	sta     _temp_y
	stx     _temp_y+1
;
; drawMetatileBlock();
;
	jsr     _drawMetatileBlock
;
; temp_y = 0x60;
;
	ldx     #$00
	lda     #$60
;
; break;
;
	jmp     L183C
;
; temp_y = 0x80;
;
L1838:	lda     #$80
	sta     _temp_y
	stx     _temp_y+1
;
; drawMetatileBlock();
;
	jsr     _drawMetatileBlock
;
; temp_y = 0xa0;
;
	ldx     #$00
	lda     #$A0
;
; break;
;
	jmp     L183C
;
; temp_y = 0xc0;
;
L1839:	lda     #$C0
	sta     _temp_y
	stx     _temp_y+1
;
; drawMetatileBlock();
;
	jsr     _drawMetatileBlock
;
; temp_y = 0xe0;
;
	ldx     #$00
	lda     #$E0
L183C:	sta     _temp_y
	stx     _temp_y+1
;
; drawMetatileBlock();
;
	jsr     _drawMetatileBlock
;
; --scroll_count;   // Decrement scroll_count for left scrolling
;
	dec     _scroll_count
;
; scroll_count &= 3; // mask off top bits, keep it 0-3
;
	lda     _scroll_count
	and     #$03
	sta     _scroll_count
;
; }
;
	rts

.endproc

; ---------------------------------------------------------------
; void __near__ draw_screen_R (void)
; ---------------------------------------------------------------

.segment	"BANK2"

.proc	_draw_screen_R: near

.segment	"BANK2"

;
; pseudo_scroll_x = scroll_x + 0x120;
;
	lda     _scroll_x
	ldx     _scroll_x+1
	clc
	adc     #$20
	bcc     L12D8
	inx
L12D8:	inx
	sta     _pseudo_scroll_x
	stx     _pseudo_scroll_x+1
;
; offset = (pseudo_scroll_x >> 8);
;
	lda     _pseudo_scroll_x+1
	sta     _offset
;
; if (offset >= levels_per_stage[current_stage] || offset < 0) {
;
	lda     _offset
	jsr     pusha0
	ldy     _current_stage
	lda     _levels_per_stage,y
	jsr     tosicmp0
	bcc     L1848
;
; offset = 0;
;
	lda     #$00
	sta     _offset
;
; set_data_pointer(stage_table[current_stage][offset]);
;
L1848:	ldx     #$00
	lda     _current_stage
	asl     a
	bcc     L1840
	inx
	clc
L1840:	adc     #<(_stage_table)
	sta     ptr1
	txa
	adc     #>(_stage_table)
	sta     ptr1+1
	ldy     #$01
	lda     (ptr1),y
	tax
	dey
	lda     (ptr1),y
	sta     ptr1
	stx     ptr1+1
	ldx     #$00
	lda     _offset
	asl     a
	bcc     L1841
	inx
	clc
L1841:	adc     ptr1
	sta     ptr1
	txa
	adc     ptr1+1
	sta     ptr1+1
	iny
	lda     (ptr1),y
	tax
	dey
	lda     (ptr1),y
	jsr     _set_data_pointer
;
; nt = ((pseudo_scroll_x >> 8) & 1);
;
	lda     _pseudo_scroll_x+1
	and     #$01
	sta     _nt
;
; x = pseudo_scroll_x & 0xff;
;
	lda     _pseudo_scroll_x
	sta     _x
;
; switch (scroll_count)
;
	ldx     #$00
	lda     _scroll_count
;
; }
;
	beq     L1844
	cmp     #$01
	beq     L1845
	cmp     #$02
	beq     L1846
	jmp     L1847
;
; temp_y = 0;
;
L1844:	sta     _temp_y
	sta     _temp_y+1
;
; drawMetatileBlock();
;
	jsr     _drawMetatileBlock
;
; temp_y = 0x20;
;
	ldx     #$00
	lda     #$20
;
; break;
;
	jmp     L184A
;
; temp_y = 0x40;
;
L1845:	lda     #$40
	sta     _temp_y
	stx     _temp_y+1
;
; drawMetatileBlock();
;
	jsr     _drawMetatileBlock
;
; temp_y = 0x60;
;
	ldx     #$00
	lda     #$60
;
; break;
;
	jmp     L184A
;
; temp_y = 0x80;
;
L1846:	lda     #$80
	sta     _temp_y
	stx     _temp_y+1
;
; drawMetatileBlock();
;
	jsr     _drawMetatileBlock
;
; temp_y = 0xa0;
;
	ldx     #$00
	lda     #$A0
;
; break;
;
	jmp     L184A
;
; temp_y = 0xc0;
;
L1847:	lda     #$C0
	sta     _temp_y
	stx     _temp_y+1
;
; drawMetatileBlock();
;
	jsr     _drawMetatileBlock
;
; temp_y = 0xe0;
;
	ldx     #$00
	lda     #$E0
L184A:	sta     _temp_y
	stx     _temp_y+1
;
; drawMetatileBlock();
;
	jsr     _drawMetatileBlock
;
; ++scroll_count;   // Increment scroll_count for right scrolling
;
	inc     _scroll_count
;
; scroll_count &= 3; // mask off top bits, keep it 0-3
;
	lda     _scroll_count
	and     #$03
	sta     _scroll_count
;
; }
;
	rts

.endproc

; ---------------------------------------------------------------
; void __near__ new_cmap (void)
; ---------------------------------------------------------------

.segment	"BANK2"

.proc	_new_cmap: near

.segment	"BANK2"

;
; offset = room_to_load;
;
	lda     _room_to_load
	sta     _offset
;
; map = room_to_load & 1; // even or odd?
;
	lda     _room_to_load
	and     #$01
	sta     _map
;
; if (!map) 
;
	lda     _map
	jne     L1317
;
; memcpy(c_map, stage_table[current_stage][offset], 240); 
;
	lda     #<(_c_map)
	ldx     #>(_c_map)
	jsr     pushax
	ldx     #$00
	lda     _current_stage
	asl     a
	bcc     L1853
	inx
	clc
L1853:	adc     #<(_stage_table)
	sta     ptr1
	txa
	adc     #>(_stage_table)
	sta     ptr1+1
	ldy     #$01
	lda     (ptr1),y
	tax
	dey
	lda     (ptr1),y
	sta     ptr1
	stx     ptr1+1
	ldx     #$00
	lda     _offset
	asl     a
	bcc     L1854
	inx
	clc
L1854:	adc     ptr1
	sta     ptr1
	txa
	adc     ptr1+1
	sta     ptr1+1
	iny
	lda     (ptr1),y
	tax
	dey
	lda     (ptr1),y
	jsr     pushax
	ldx     #$00
	lda     #$F0
	jsr     _memcpy
;
; if (scrolling_direction) 
;
	lda     _scrolling_direction
	beq     L131F
;
; if (offset + 1 < levels_per_stage[current_stage])
;
	ldx     #$00
	lda     _offset
	clc
	adc     #$01
	bcc     L1323
	inx
L1323:	jsr     pushax
	ldy     _current_stage
	lda     _levels_per_stage,y
	jsr     tosicmp0
	bcc     L185B
;
; else
;
	rts
;
; memcpy(c_map2, stage_table[current_stage][offset + 1], 240);
;
L185B:	lda     #<(_c_map2)
	ldx     #>(_c_map2)
	jsr     pushax
	ldx     #$00
	lda     _current_stage
	asl     a
	bcc     L1855
	inx
	clc
L1855:	adc     #<(_stage_table)
	sta     ptr1
	txa
	adc     #>(_stage_table)
	sta     ptr1+1
	ldy     #$01
	lda     (ptr1),y
	tax
	dey
	lda     (ptr1),y
	sta     ptr1
	stx     ptr1+1
	ldx     #$00
	lda     _offset
	clc
	adc     #$01
	bcc     L132B
	inx
L132B:	stx     tmp1
	asl     a
	rol     tmp1
	clc
	adc     ptr1
	sta     ptr1
	lda     tmp1
	adc     ptr1+1
	sta     ptr1+1
	iny
	lda     (ptr1),y
	tax
	dey
	lda     (ptr1),y
	jsr     pushax
	ldx     #$00
	lda     #$F0
	jmp     _memcpy
;
; if (offset - 1 >= 0)
;
L131F:	lda     _offset
	sec
	sbc     #$01
	jsr     return1
	bne     L185C
;
; }
;
	rts
;
; memcpy(c_map2, stage_table[current_stage][offset - 1], 240);
;
L185C:	lda     #<(_c_map2)
	ldx     #>(_c_map2)
	jsr     pushax
	ldx     #$00
	lda     _current_stage
	asl     a
	bcc     L1856
	inx
	clc
L1856:	adc     #<(_stage_table)
	sta     ptr1
	txa
	adc     #>(_stage_table)
	sta     ptr1+1
	ldy     #$01
	lda     (ptr1),y
	tax
	dey
	lda     (ptr1),y
	sta     ptr1
	stx     ptr1+1
	ldx     #$00
	lda     _offset
	sec
	sbc     #$01
	bcs     L1336
	dex
L1336:	stx     tmp1
	asl     a
	rol     tmp1
	clc
	adc     ptr1
	sta     ptr1
	lda     tmp1
	adc     ptr1+1
	sta     ptr1+1
	iny
	lda     (ptr1),y
	tax
	dey
	lda     (ptr1),y
	jsr     pushax
	ldx     #$00
	lda     #$F0
	jmp     _memcpy
;
; memcpy(c_map2, stage_table[current_stage][offset], 240);
;
L1317:	lda     #<(_c_map2)
	ldx     #>(_c_map2)
	jsr     pushax
	ldx     #$00
	lda     _current_stage
	asl     a
	bcc     L1857
	inx
	clc
L1857:	adc     #<(_stage_table)
	sta     ptr1
	txa
	adc     #>(_stage_table)
	sta     ptr1+1
	ldy     #$01
	lda     (ptr1),y
	tax
	dey
	lda     (ptr1),y
	sta     ptr1
	stx     ptr1+1
	ldx     #$00
	lda     _offset
	asl     a
	bcc     L1858
	inx
	clc
L1858:	adc     ptr1
	sta     ptr1
	txa
	adc     ptr1+1
	sta     ptr1+1
	iny
	lda     (ptr1),y
	tax
	dey
	lda     (ptr1),y
	jsr     pushax
	ldx     #$00
	lda     #$F0
	jsr     _memcpy
;
; if (scrolling_direction)
;
	lda     _scrolling_direction
	beq     L133F
;
; if (offset + 1 < levels_per_stage[current_stage])
;
	ldx     #$00
	lda     _offset
	clc
	adc     #$01
	bcc     L1343
	inx
L1343:	jsr     pushax
	ldy     _current_stage
	lda     _levels_per_stage,y
	jsr     tosicmp0
	bcc     L185D
;
; }
;
	rts
;
; memcpy(c_map, stage_table[current_stage][offset + 1], 240);
;
L185D:	lda     #<(_c_map)
	ldx     #>(_c_map)
	jsr     pushax
	ldx     #$00
	lda     _current_stage
	asl     a
	bcc     L1859
	inx
	clc
L1859:	adc     #<(_stage_table)
	sta     ptr1
	txa
	adc     #>(_stage_table)
	sta     ptr1+1
	ldy     #$01
	lda     (ptr1),y
	tax
	dey
	lda     (ptr1),y
	sta     ptr1
	stx     ptr1+1
	ldx     #$00
	lda     _offset
	clc
	adc     #$01
	bcc     L134B
	inx
L134B:	stx     tmp1
	asl     a
	rol     tmp1
	clc
	adc     ptr1
	sta     ptr1
	lda     tmp1
	adc     ptr1+1
	sta     ptr1+1
	iny
	lda     (ptr1),y
	tax
	dey
	lda     (ptr1),y
	jsr     pushax
	ldx     #$00
	lda     #$F0
	jmp     _memcpy
;
; if (offset - 1 >= 0)
;
L133F:	lda     _offset
	sec
	sbc     #$01
	jsr     return1
	beq     L134E
;
; memcpy(c_map, stage_table[current_stage][offset - 1], 240);
;
	lda     #<(_c_map)
	ldx     #>(_c_map)
	jsr     pushax
	ldx     #$00
	lda     _current_stage
	asl     a
	bcc     L185A
	inx
	clc
L185A:	adc     #<(_stage_table)
	sta     ptr1
	txa
	adc     #>(_stage_table)
	sta     ptr1+1
	ldy     #$01
	lda     (ptr1),y
	tax
	dey
	lda     (ptr1),y
	sta     ptr1
	stx     ptr1+1
	ldx     #$00
	lda     _offset
	sec
	sbc     #$01
	bcs     L1356
	dex
L1356:	stx     tmp1
	asl     a
	rol     tmp1
	clc
	adc     ptr1
	sta     ptr1
	lda     tmp1
	adc     ptr1+1
	sta     ptr1+1
	iny
	lda     (ptr1),y
	tax
	dey
	lda     (ptr1),y
	jsr     pushax
	ldx     #$00
	lda     #$F0
	jmp     _memcpy
;
; }
;
L134E:	rts

.endproc

; ---------------------------------------------------------------
; void __near__ prep_scroll_screen (void)
; ---------------------------------------------------------------

.segment	"BANK2"

.proc	_prep_scroll_screen: near

.segment	"BANK2"

;
; temp1 = low_byte(scroll_x) + high_byte(Player1.x);
;
	ldx     #$00
	lda     _scroll_x
	clc
	adc     _Player1+1
	bcc     L185E
	inx
L185E:	sta     _temp1
	stx     _temp1+1
;
; if (temp1 > 0x98 && temp1 < 0xa4) // middle of the screen
;
	cmp     #$99
	txa
	sbc     #$00
	bcc     L135D
	lda     _temp1+1
	cmp     #$00
	bne     L1360
	lda     _temp1
	cmp     #$A4
L1360:	bcs     L135D
;
; map_loaded = 0;
;
	lda     #$00
	sta     _map_loaded
;
; temp2 = Player1.x; // store his x before we check the scrolling
;
L135D:	lda     _Player1+1
	sta     _temp2+1
	lda     _Player1
	sta     _temp2
;
; if (Player1.x < MAX_LEFT)
;
	ldx     _Player1+1
	cpx     #$50
	jcs     L138F
;
; if (!map_loaded)
;
	lda     _map_loaded
	bne     L1368
;
; room_to_load = ((scroll_x >> 8) - 1); // high byte = room, one to the left
;
	lda     _scroll_x+1
	sec
	sbc     #$01
	sta     _room_to_load
;
; new_cmap();
;
	jsr     _new_cmap
;
; map_loaded = 1; // only do once
;
	lda     #$01
	sta     _map_loaded
;
; temp1 = (MAX_LEFT - Player1.x) >> 8;
;
L1368:	lda     #$00
	sec
	sbc     _Player1
	lda     #$50
	sbc     _Player1+1
	ldx     #$00
	sta     _temp1
	stx     _temp1+1
;
; if (temp1 > 3)
;
	cmp     #$04
	bcc     L1375
;
; temp1 = 3; // max scroll change
;
	lda     #$03
	sta     _temp1
	stx     _temp1+1
;
; temp3 = scroll_x + high_byte(Player1.x);
;
L1375:	lda     _scroll_x
	ldx     _scroll_x+1
	clc
	adc     _Player1+1
	bcc     L185F
	inx
L185F:	sta     _temp3
	stx     _temp3+1
;
; current_level = (temp3 >> 8);
;
	lda     _temp3+1
	sta     _current_level
;
; max_rooms = levels_per_stage[current_stage] - 1;
;
	ldy     _current_stage
	lda     _levels_per_stage,y
	sec
	sbc     #$01
	sta     _max_rooms
;
; max_scroll = (max_rooms * 0x100) - 1;
;
	tax
	lda     #$00
	sec
	sbc     #$01
	bcs     L1387
	dex
L1387:	sta     _max_scroll
	stx     _max_scroll+1
;
; if (max_rooms >= 1) // this is for the multi-room levels
;
	lda     _max_rooms
	beq     L138F
;
; if ((scroll_x - temp1) > max_scroll) // if subtracting the scroll makes it overflow
;
	lda     _scroll_x
	sec
	sbc     _temp1
	pha
	lda     _scroll_x+1
	sbc     _temp1+1
	tax
	pla
	sec
	sbc     _max_scroll
	sta     tmp1
	txa
	sbc     _max_scroll+1
	ora     tmp1
	bcc     L138A
	beq     L138A
;
; scroll_x = 0; // just go to zero (and move the guy)
;
	lda     #$00
	sta     _scroll_x
	sta     _scroll_x+1
;
; else // otherwise scroll the window and offset the guy's movement
;
	jmp     L138F
;
; scroll_x -= temp1;                  // scroll the window
;
L138A:	lda     _temp1
	eor     #$FF
	sec
	adc     _scroll_x
	sta     _scroll_x
	lda     _temp1+1
	eor     #$FF
	adc     _scroll_x+1
	sta     _scroll_x+1
;
; high_byte(Player1.x) = high_byte(Player1.x) + temp1; // add the offset to the guy
;
	lda     _Player1+1
	clc
	adc     _temp1
	sta     _Player1+1
	lda     #$00
	adc     _temp1+1
;
; if (Player1.x > MAX_RIGHT)
;
L138F:	lda     _Player1
	cmp     #$01
	lda     _Player1+1
	sbc     #$90
	bcc     L13A9
;
; if (!map_loaded) // gets reset whenever the player's in the middle of the level
;
	lda     _map_loaded
	bne     L1398
;
; room_to_load = ((scroll_x >> 8) + 1); // high byte = room, one to the left
;
	lda     _scroll_x+1
	clc
	adc     #$01
	sta     _room_to_load
;
; new_cmap();
;
	jsr     _new_cmap
;
; map_loaded = 1; // only do once
;
	lda     #$01
	sta     _map_loaded
;
; temp1 = (Player1.x - MAX_RIGHT) >> 8;
;
L1398:	lda     _Player1+1
	sec
	sbc     #$90
	ldx     #$00
	sta     _temp1
	stx     _temp1+1
;
; if (temp1 > 3)
;
	cmp     #$04
	bcc     L1863
;
; temp1 = 3; // max scroll change
;
	lda     #$03
	sta     _temp1
	stx     _temp1+1
;
; if (max_rooms >= 1) // used for single room levels
;
L1863:	lda     _max_rooms
	beq     L13A9
;
; scroll_x += temp1;                  // scroll the window
;
	lda     _temp1
	clc
	adc     _scroll_x
	sta     _scroll_x
	lda     _temp1+1
	adc     _scroll_x+1
	sta     _scroll_x+1
;
; high_byte(Player1.x) = high_byte(Player1.x) - temp1; // sub the offet from the guy
;
	lda     _Player1+1
	sec
	sbc     _temp1
	sta     _Player1+1
	txa
	sbc     _temp1+1
;
; if (scroll_x >= max_scroll)
;
L13A9:	lda     _scroll_x
	cmp     _max_scroll
	lda     _scroll_x+1
	sbc     _max_scroll+1
	bcc     L13B7
;
; scroll_x = max_scroll;      // stop scrolling right, end of level
;
	lda     _max_scroll+1
	sta     _scroll_x+1
	lda     _max_scroll
	sta     _scroll_x
;
; Player1.x = temp2;        // but allow the x position to go all the way right
;
	lda     _temp2+1
	sta     _Player1+1
	lda     _temp2
	sta     _Player1
;
; if (high_byte(Player1.x) >= 0xe0) // but limit how far right he can go
;
	lda     _Player1+1
	cmp     #$E0
	bcc     L13B7
;
; Player1.x = 0xe000;
;
	ldx     #$E0
	lda     #$00
	sta     _Player1
	stx     _Player1+1
;
; }
;
L13B7:	rts

.endproc

; ---------------------------------------------------------------
; void __near__ handle_scrolling (void)
; ---------------------------------------------------------------

.segment	"BANK2"

.proc	_handle_scrolling: near

.segment	"BANK2"

;
; scrolling_direction = (Player1.vel_x >= 0) ? 0 : 1;
;
	ldx     _Player1+4+1
	bmi     L13C0
	lda     #$00
	jmp     L1864
L13C0:	lda     #$01
L1864:	sta     _scrolling_direction
;
; if (!r_scroll_frames && !l_scroll_frames)
;
	lda     _r_scroll_frames
	bne     L13CD
	lda     _l_scroll_frames
	bne     L13CD
;
; if (Player1.vel_x > 0)
;
	lda     _Player1+4
	cmp     #$01
	lda     _Player1+4+1
	sbc     #$00
	bvs     L13CA
	eor     #$80
L13CA:	bpl     L1867
;
; r_scroll_frames = 4;
;
	lda     #$04
	sta     _r_scroll_frames
;
; else
;
	jmp     L13CD
;
; l_scroll_frames = 4;
;
L1867:	lda     #$04
	sta     _l_scroll_frames
;
; if (r_scroll_frames)
;
L13CD:	lda     _r_scroll_frames
	beq     L13D0
;
; draw_screen_R();
;
	jsr     _draw_screen_R
;
; --r_scroll_frames;
;
	dec     _r_scroll_frames
;
; else if (l_scroll_frames)
;
	rts
L13D0:	lda     _l_scroll_frames
	beq     L13D5
;
; draw_screen_L();
;
	jsr     _draw_screen_L
;
; --l_scroll_frames;
;
	dec     _l_scroll_frames
;
; }
;
L13D5:	rts

.endproc

; ---------------------------------------------------------------
; void __near__ bank2_load_title (void)
; ---------------------------------------------------------------

.segment	"BANK2"

.proc	_bank2_load_title: near

.segment	"BANK2"

;
; ppu_off();
;
	jsr     _ppu_off
;
; set_data_pointer(titletiled_0);
;
	lda     #<(_titletiled_0)
	ldx     #>(_titletiled_0)
	jsr     _set_data_pointer
;
; set_mt_pointer(metatile);
;
	lda     #<(_metatile)
	ldx     #>(_metatile)
	jsr     _set_mt_pointer
;
; for (y = 0;; y += 0x20)
;
	lda     #$00
L186A:	sta     _y
;
; for (x = 0;; x += 0x20)
;
	lda     #$00
L1869:	sta     _x
;
; address = get_ppu_addr(0, x, y);
;
	jsr     decsp2
	lda     #$00
	ldy     #$01
	sta     (sp),y
	lda     _x
	dey
	sta     (sp),y
	lda     _y
	jsr     _get_ppu_addr
	sta     _address
	stx     _address+1
;
; index = (y & 0xf0) + (x >> 4);
;
	lda     _y
	and     #$F0
	sta     ptr1
	lda     _x
	lsr     a
	lsr     a
	lsr     a
	lsr     a
	clc
	adc     ptr1
	sta     _index
;
; buffer_4_mt(address, index); // ppu_address, index to the data
;
	lda     _address
	ldx     _address+1
	jsr     pushax
	lda     _index
	jsr     _buffer_4_mt
;
; flush_vram_update2();
;
	jsr     _flush_vram_update2
;
; if (x == 0xe0)
;
	lda     _x
	cmp     #$E0
;
; break;
;
	beq     L186B
;
; for (x = 0;; x += 0x20)
;
	lda     #$20
	clc
	adc     _x
	jmp     L1869
;
; if (y == 0xe0)
;
L186B:	lda     _y
	cmp     #$E0
;
; break;
;
	beq     L14D0
;
; for (y = 0;; y += 0x20)
;
	lda     #$20
	clc
	adc     _y
	jmp     L186A
;
; ppu_on_all();
;
L14D0:	jsr     _ppu_on_all
;
; game_mode = MODE_TITLE;
;
	lda     #$00
	sta     _game_mode
;
; multi_vram_buffer_horz("NOAH VS. ATRAHASIS", 18, NTADR_A(12, 6));
;
	jsr     decsp3
	lda     #<(L14F4)
	ldy     #$01
	sta     (sp),y
	iny
	lda     #>(L14F4)
	sta     (sp),y
	lda     #$12
	ldy     #$00
	sta     (sp),y
	ldx     #$20
	lda     #$CC
	jsr     _multi_vram_buffer_horz
;
; multi_vram_buffer_horz("ONE ON ONE", 10, NTADR_A(14, 7));
;
	jsr     decsp3
	lda     #<(L14FE)
	ldy     #$01
	sta     (sp),y
	iny
	lda     #>(L14FE)
	sta     (sp),y
	lda     #$0A
	ldy     #$00
	sta     (sp),y
	ldx     #$20
	lda     #$EE
	jsr     _multi_vram_buffer_horz
;
; multi_vram_buffer_horz("BRIAN & ALAN GAMES", 18, NTADR_A(12, 10));
;
	jsr     decsp3
	lda     #<(L1508)
	ldy     #$01
	sta     (sp),y
	iny
	lda     #>(L1508)
	sta     (sp),y
	lda     #$12
	ldy     #$00
	sta     (sp),y
	ldx     #$21
	lda     #$4C
	jmp     _multi_vram_buffer_horz

.endproc

; ---------------------------------------------------------------
; void __near__ bank2_load_gameover (void)
; ---------------------------------------------------------------

.segment	"BANK2"

.proc	_bank2_load_gameover: near

.segment	"BANK2"

;
; ppu_off();
;
	jsr     _ppu_off
;
; set_data_pointer(gameovertiled_0);
;
	lda     #<(_gameovertiled_0)
	ldx     #>(_gameovertiled_0)
	jsr     _set_data_pointer
;
; set_mt_pointer(metatile);
;
	lda     #<(_metatile)
	ldx     #>(_metatile)
	jsr     _set_mt_pointer
;
; for (y = 0;; y += 0x20)
;
	lda     #$00
L186E:	sta     _y
;
; for (x = 0;; x += 0x20)
;
	lda     #$00
L186D:	sta     _x
;
; address = get_ppu_addr(0, x, y);
;
	jsr     decsp2
	lda     #$00
	ldy     #$01
	sta     (sp),y
	lda     _x
	dey
	sta     (sp),y
	lda     _y
	jsr     _get_ppu_addr
	sta     _address
	stx     _address+1
;
; index = (y & 0xf0) + (x >> 4);
;
	lda     _y
	and     #$F0
	sta     ptr1
	lda     _x
	lsr     a
	lsr     a
	lsr     a
	lsr     a
	clc
	adc     ptr1
	sta     _index
;
; buffer_4_mt(address, index); // ppu_address, index to the data
;
	lda     _address
	ldx     _address+1
	jsr     pushax
	lda     _index
	jsr     _buffer_4_mt
;
; flush_vram_update2();
;
	jsr     _flush_vram_update2
;
; if (x == 0xe0)
;
	lda     _x
	cmp     #$E0
;
; break;
;
	beq     L186F
;
; for (x = 0;; x += 0x20)
;
	lda     #$20
	clc
	adc     _x
	jmp     L186D
;
; if (y == 0xe0)
;
L186F:	lda     _y
	cmp     #$E0
;
; break;
;
	beq     L1608
;
; for (y = 0;; y += 0x20)
;
	lda     #$20
	clc
	adc     _y
	jmp     L186E
;
; ppu_on_all();
;
L1608:	jsr     _ppu_on_all
;
; game_mode = MODE_GAMEOVER;
;
	lda     #$01
	sta     _game_mode
;
; }
;
	rts

.endproc

; ---------------------------------------------------------------
; void __near__ bank2_load_room (void)
; ---------------------------------------------------------------

.segment	"BANK2"

.proc	_bank2_load_room: near

.segment	"BANK2"

;
; if (current_stage == 0) {
;
	lda     _current_stage
	bne     L1885
;
; set_chr_bank_1(CHR_STAGE_1);
;
	lda     #$01
;
; } else if (current_stage == 1) {
;
	jmp     L1879
L1885:	lda     _current_stage
	cmp     #$01
	bne     L1631
;
; set_chr_bank_1(CHR_STAGE_2);
;
	lda     #$02
L1879:	jsr     _set_chr_bank_1
;
; ppu_off(); 
;
L1631:	jsr     _ppu_off
;
; clear_vram_buffer();
;
	jsr     _clear_vram_buffer
;
; set_vram_buffer();
;
	jsr     _set_vram_buffer
;
; set_data_pointer(stage_table[current_stage][current_level]);
;
	ldx     #$00
	lda     _current_stage
	asl     a
	bcc     L187E
	inx
	clc
L187E:	adc     #<(_stage_table)
	sta     ptr1
	txa
	adc     #>(_stage_table)
	sta     ptr1+1
	ldy     #$01
	lda     (ptr1),y
	tax
	dey
	lda     (ptr1),y
	sta     ptr1
	stx     ptr1+1
	ldx     #$00
	lda     _current_level
	asl     a
	bcc     L187F
	inx
	clc
L187F:	adc     ptr1
	sta     ptr1
	txa
	adc     ptr1+1
	sta     ptr1+1
	iny
	lda     (ptr1),y
	tax
	dey
	lda     (ptr1),y
	jsr     _set_data_pointer
;
; set_mt_pointer(metatile);
;
	lda     #<(_metatile)
	ldx     #>(_metatile)
	jsr     _set_mt_pointer
;
; for (y = 0;; y += 0x20)
;
	lda     #$00
L187B:	sta     _y
;
; for (x = 0;; x += 0x20)
;
	lda     #$00
L187A:	sta     _x
;
; address = get_ppu_addr(nametable_to_load, x, y);
;
	jsr     decsp2
	lda     _nametable_to_load
	ldy     #$01
	sta     (sp),y
	lda     _x
	dey
	sta     (sp),y
	lda     _y
	jsr     _get_ppu_addr
	sta     _address
	stx     _address+1
;
; index = (y & 0xf0) + (x >> 4);
;
	lda     _y
	and     #$F0
	sta     ptr1
	lda     _x
	lsr     a
	lsr     a
	lsr     a
	lsr     a
	clc
	adc     ptr1
	sta     _index
;
; buffer_4_mt(address, index); // ppu_address, index to the data
;
	lda     _address
	ldx     _address+1
	jsr     pushax
	lda     _index
	jsr     _buffer_4_mt
;
; flush_vram_update2();
;
	jsr     _flush_vram_update2
;
; if (x == 0xe0)
;
	ldx     #$00
	lda     _x
	cmp     #$E0
;
; break;
;
	beq     L1886
;
; for (x = 0;; x += 0x20)
;
	lda     #$20
	clc
	adc     _x
	jmp     L187A
;
; if (y == 0xe0)
;
L1886:	lda     _y
	cmp     #$E0
;
; break;
;
	beq     L1887
;
; for (y = 0;; y += 0x20)
;
	lda     #$20
	clc
	adc     _y
	jmp     L187B
;
; set_data_pointer(stage_table[current_stage][current_level+1]);
;
L1887:	lda     _current_stage
	asl     a
	bcc     L1880
	inx
	clc
L1880:	adc     #<(_stage_table)
	sta     ptr1
	txa
	adc     #>(_stage_table)
	sta     ptr1+1
	ldy     #$01
	lda     (ptr1),y
	tax
	dey
	lda     (ptr1),y
	sta     ptr1
	stx     ptr1+1
	ldx     #$00
	lda     _current_level
	clc
	adc     #$01
	bcc     L1663
	inx
L1663:	stx     tmp1
	asl     a
	rol     tmp1
	clc
	adc     ptr1
	sta     ptr1
	lda     tmp1
	adc     ptr1+1
	sta     ptr1+1
	iny
	lda     (ptr1),y
	tax
	dey
	lda     (ptr1),y
	jsr     _set_data_pointer
;
; for (y = 0;; y += 0x20)
;
	lda     #$00
L187C:	sta     _y
;
; x = 0;
;
	lda     #$00
	sta     _x
;
; nt = (nametable_to_load + 1) % 2;
;
	lda     _nametable_to_load
	clc
	adc     #$01
	and     #$01
	sta     _nt
;
; address = get_ppu_addr(1, x, y);
;
	jsr     decsp2
	lda     #$01
	tay
	sta     (sp),y
	lda     _x
	dey
	sta     (sp),y
	lda     _y
	jsr     _get_ppu_addr
	sta     _address
	stx     _address+1
;
; index = (y & 0xf0);
;
	lda     _y
	and     #$F0
	sta     _index
;
; buffer_4_mt(address, index); // ppu_address, index to the data
;
	lda     _address
	ldx     _address+1
	jsr     pushax
	lda     _index
	jsr     _buffer_4_mt
;
; flush_vram_update2();
;
	jsr     _flush_vram_update2
;
; if (y == 0xe0)
;
	lda     _y
	cmp     #$E0
;
; break;
;
	beq     L1888
;
; for (y = 0;; y += 0x20)
;
	lda     #$20
	clc
	adc     _y
	jmp     L187C
;
; if (current_level > 0) {
;
L1888:	lda     _current_level
	jeq     L1688
;
; set_data_pointer(stage_table[current_stage][current_level-1]);
;
	ldx     #$00
	lda     _current_stage
	asl     a
	bcc     L1881
	inx
	clc
L1881:	adc     #<(_stage_table)
	sta     ptr1
	txa
	adc     #>(_stage_table)
	sta     ptr1+1
	ldy     #$01
	lda     (ptr1),y
	tax
	dey
	lda     (ptr1),y
	sta     ptr1
	stx     ptr1+1
	ldx     #$00
	lda     _current_level
	sec
	sbc     #$01
	bcs     L1686
	dex
L1686:	stx     tmp1
	asl     a
	rol     tmp1
	clc
	adc     ptr1
	sta     ptr1
	lda     tmp1
	adc     ptr1+1
	sta     ptr1+1
	iny
	lda     (ptr1),y
	tax
	dey
	lda     (ptr1),y
	jsr     _set_data_pointer
;
; for (y = 0;; y += 0x20)
;
	lda     #$00
L187D:	sta     _y
;
; x = 240;
;
	lda     #$F0
	sta     _x
;
; nt = nametable_to_load;
;
	lda     _nametable_to_load
	sta     _nt
;
; address = get_ppu_addr(nt, x, y);
;
	jsr     decsp2
	lda     _nt
	ldy     #$01
	sta     (sp),y
	lda     _x
	dey
	sta     (sp),y
	lda     _y
	jsr     _get_ppu_addr
	sta     _address
	stx     _address+1
;
; index = y + (x >> 4);
;
	lda     _x
	lsr     a
	lsr     a
	lsr     a
	lsr     a
	clc
	adc     _y
	sta     _index
;
; buffer_4_mt(address, index); // ppu_address, index to the data
;
	lda     _address
	ldx     _address+1
	jsr     pushax
	lda     _index
	jsr     _buffer_4_mt
;
; flush_vram_update2();
;
	jsr     _flush_vram_update2
;
; if (y == 0xe0)
;
	lda     _y
	cmp     #$E0
;
; break;
;
	beq     L1688
;
; for (y = 0;; y += 0x20)
;
	lda     #$20
	clc
	adc     _y
	jmp     L187D
;
; memcpy(c_map, stage_table[current_stage][current_level], 240); 
;
L1688:	lda     #<(_c_map)
	ldx     #>(_c_map)
	jsr     pushax
	ldx     #$00
	lda     _current_stage
	asl     a
	bcc     L1882
	inx
	clc
L1882:	adc     #<(_stage_table)
	sta     ptr1
	txa
	adc     #>(_stage_table)
	sta     ptr1+1
	ldy     #$01
	lda     (ptr1),y
	tax
	dey
	lda     (ptr1),y
	sta     ptr1
	stx     ptr1+1
	ldx     #$00
	lda     _current_level
	asl     a
	bcc     L1883
	inx
	clc
L1883:	adc     ptr1
	sta     ptr1
	txa
	adc     ptr1+1
	sta     ptr1+1
	iny
	lda     (ptr1),y
	tax
	dey
	lda     (ptr1),y
	jsr     pushax
	ldx     #$00
	lda     #$F0
	jsr     _memcpy
;
; if (current_level + 1 < levels_per_stage[current_stage]) {
;
	ldx     #$00
	lda     _current_level
	clc
	adc     #$01
	bcc     L16A9
	inx
L16A9:	jsr     pushax
	ldy     _current_stage
	lda     _levels_per_stage,y
	jsr     tosicmp0
	bcs     L16A7
;
; memcpy(c_map2, stage_table[current_stage][current_level + 1], 240);
;
	lda     #<(_c_map2)
	ldx     #>(_c_map2)
	jsr     pushax
	ldx     #$00
	lda     _current_stage
	asl     a
	bcc     L1884
	inx
	clc
L1884:	adc     #<(_stage_table)
	sta     ptr1
	txa
	adc     #>(_stage_table)
	sta     ptr1+1
	ldy     #$01
	lda     (ptr1),y
	tax
	dey
	lda     (ptr1),y
	sta     ptr1
	stx     ptr1+1
	ldx     #$00
	lda     _current_level
	clc
	adc     #$01
	bcc     L16B1
	inx
L16B1:	stx     tmp1
	asl     a
	rol     tmp1
	clc
	adc     ptr1
	sta     ptr1
	lda     tmp1
	adc     ptr1+1
	sta     ptr1+1
	iny
	lda     (ptr1),y
	tax
	dey
	lda     (ptr1),y
	jsr     pushax
	ldx     #$00
	lda     #$F0
	jsr     _memcpy
;
; map_loaded = 1;
;
L16A7:	lda     #$01
	sta     _map_loaded
;
; ppu_on_all();
;
	jmp     _ppu_on_all

.endproc

; ---------------------------------------------------------------
; void __near__ bank2_scroll_screen (void)
; ---------------------------------------------------------------

.segment	"BANK2"

.proc	_bank2_scroll_screen: near

.segment	"BANK2"

;
; prep_scroll_screen();
;
	jsr     _prep_scroll_screen
;
; set_scroll_x(scroll_x);
;
	lda     _scroll_x
	ldx     _scroll_x+1
	jsr     _set_scroll_x
;
; set_scroll_y(scroll_y);
;
	lda     _scroll_y
	ldx     _scroll_y+1
	jsr     _set_scroll_y
;
; handle_scrolling();
;
	jmp     _handle_scrolling

.endproc

; ---------------------------------------------------------------
; void __near__ function_bank3 (void)
; ---------------------------------------------------------------

.segment	"BANK3"

.proc	_function_bank3: near

.segment	"BANK3"

;
; }
;
	rts

.endproc

; ---------------------------------------------------------------
; void __near__ function_bank4 (void)
; ---------------------------------------------------------------

.segment	"BANK4"

.proc	_function_bank4: near

.segment	"BANK4"

;
; }
;
	rts

.endproc

; ---------------------------------------------------------------
; void __near__ function_bank5 (void)
; ---------------------------------------------------------------

.segment	"BANK5"

.proc	_function_bank5: near

.segment	"BANK5"

;
; }
;
	rts

.endproc

; ---------------------------------------------------------------
; void __near__ function_bank6 (void)
; ---------------------------------------------------------------

.segment	"BANK6"

.proc	_function_bank6: near

.segment	"BANK6"

;
; }
;
	rts

.endproc

; ---------------------------------------------------------------
; void __near__ load_level_select (void)
; ---------------------------------------------------------------

.segment	"CODE"

.proc	_load_level_select: near

.segment	"CODE"

;
; ppu_off();
;
	jsr     _ppu_off
;
; clear_vram_buffer();
;
	jsr     _clear_vram_buffer
;
; oam_clear();
;
	jsr     _oam_clear
;
; vram_adr(NAMETABLE_A);
;
	ldx     #$20
	lda     #$00
	jsr     _vram_adr
;
; for (temp_x = 0; temp_x < 1024; ++temp_x)
;
	lda     #$00
	sta     _temp_x
	sta     _temp_x+1
L16F3:	ldx     _temp_x+1
	cpx     #$04
	bcs     L16F4
;
; vram_put(0x00);
;
	lda     #$00
	jsr     _vram_put
;
; flush_vram_update2();  
;
	jsr     _flush_vram_update2
;
; for (temp_x = 0; temp_x < 1024; ++temp_x)
;
	inc     _temp_x
	bne     L16F3
	inc     _temp_x+1
	jmp     L16F3
;
; multi_jump_max = 1;
;
L16F4:	lda     #$01
	sta     _multi_jump_max
;
; multi_jump = 0;
;
	lda     #$00
	sta     _multi_jump
;
; short_jump_count = 0;
;
	sta     _short_jump_count
;
; falling_down = 0;
;
	sta     _falling_down
;
; player_in_air = 0;
;
	sta     _player_in_air
;
; projectile_cooldown = 0;
;
	sta     _projectile_cooldown
;
; multi_vram_buffer_horz("SELECT STAGE", 12, NTADR_A(8, 6));
;
	jsr     decsp3
	lda     #<(L170C)
	ldy     #$01
	sta     (sp),y
	iny
	lda     #>(L170C)
	sta     (sp),y
	lda     #$0C
	ldy     #$00
	sta     (sp),y
	ldx     #$20
	lda     #$C8
	jsr     _multi_vram_buffer_horz
;
; update_level_select_display();
;
	jsr     _update_level_select_display
;
; ppu_on_all();
;
	jmp     _ppu_on_all

.endproc

; ---------------------------------------------------------------
; void __near__ update_level_select_display (void)
; ---------------------------------------------------------------

.segment	"CODE"

.proc	_update_level_select_display: near

.segment	"CODE"

;
; ppu_off();
;
	jsr     _ppu_off
;
; clear_vram_buffer();
;
	jsr     _clear_vram_buffer
;
; multi_vram_buffer_horz("SELECT STAGE", 12, NTADR_A(8, 6));
;
	jsr     decsp3
	lda     #<(L171B)
	ldy     #$01
	sta     (sp),y
	iny
	lda     #>(L171B)
	sta     (sp),y
	lda     #$0C
	ldy     #$00
	sta     (sp),y
	ldx     #$20
	lda     #$C8
	jsr     _multi_vram_buffer_horz
;
; if (selected_stage == 0)
;
	lda     _selected_stage
	bne     L1724
;
; multi_vram_buffer_horz("X  BEAR", 7, NTADR_A(8, 10));
;
	jsr     decsp3
	lda     #<(L1727)
	ldy     #$01
	sta     (sp),y
	iny
	lda     #>(L1727)
	sta     (sp),y
	lda     #$07
	ldy     #$00
	sta     (sp),y
	ldx     #$21
	lda     #$48
	jsr     _multi_vram_buffer_horz
;
; multi_vram_buffer_horz("   GIRAFE", 9, NTADR_A(8, 14));
;
	jsr     decsp3
	lda     #<(L1731)
	ldy     #$01
	sta     (sp),y
	iny
	lda     #>(L1731)
;
; else
;
	jmp     L188F
;
; multi_vram_buffer_horz("   BEAR", 7, NTADR_A(8, 10));
;
L1724:	jsr     decsp3
	lda     #<(L173C)
	ldy     #$01
	sta     (sp),y
	iny
	lda     #>(L173C)
	sta     (sp),y
	lda     #$07
	ldy     #$00
	sta     (sp),y
	ldx     #$21
	lda     #$48
	jsr     _multi_vram_buffer_horz
;
; multi_vram_buffer_horz("X  GIRAFE", 9, NTADR_A(8, 14));
;
	jsr     decsp3
	lda     #<(L1746)
	ldy     #$01
	sta     (sp),y
	iny
	lda     #>(L1746)
L188F:	sta     (sp),y
	lda     #$09
	ldy     #$00
	sta     (sp),y
	ldx     #$21
	lda     #$C8
	jsr     _multi_vram_buffer_horz
;
; flush_vram_update2();
;
	jsr     _flush_vram_update2
;
; ppu_on_all();
;
	jmp     _ppu_on_all

.endproc

; ---------------------------------------------------------------
; void __near__ main (void)
; ---------------------------------------------------------------

.segment	"CODE"

.proc	_main: near

.segment	"CODE"

;
; bank_spr(0);
;
	lda     #$00
	jsr     _bank_spr
;
; bank_bg(1);
;
	lda     #$01
	jsr     _bank_bg
;
; ppu_off();    // screen off
;
	jsr     _ppu_off
;
; pal_bg(palette_bg); // load the BG palette
;
	lda     #<(_palette_bg)
	ldx     #>(_palette_bg)
	jsr     _pal_bg
;
; pal_spr(palette_sp); // load the sprite palette
;
	lda     #<(_palette_sp)
	ldx     #>(_palette_sp)
	jsr     _pal_spr
;
; set_vram_buffer(); // do at least once 
;
	jsr     _set_vram_buffer
;
; ppu_wait_nmi();
;
	jsr     _ppu_wait_nmi
;
; set_mirroring(MIRROR_VERTICAL);
;
	lda     #$02
	jsr     _set_mirroring
;
; nametable_to_load = 0;
;
	lda     #$00
	sta     _nametable_to_load
;
; current_level = 0;
;
	sta     _current_level
;
; current_stage = 0;
;
	sta     _current_stage
;
; selected_stage = 0;
;
	sta     _selected_stage
;
; scroll_x = 0;
;
	sta     _scroll_x
	sta     _scroll_x+1
;
; scroll_y = 0;
;
	sta     _scroll_y
	sta     _scroll_y+1
;
; game_mode = MODE_TITLE;
;
	sta     _game_mode
;
; banked_call(BANK_2, bank2_load_title);
;
	lda     #$02
	jsr     pusha
	lda     #<(_bank2_load_title)
	ldx     #>(_bank2_load_title)
	jsr     _banked_call
;
; ppu_on_all();   // turn on screen
;
	jsr     _ppu_on_all
;
; while (game_mode == MODE_TITLE)
;
	jmp     L1890
;
; ppu_wait_nmi();
;
L1775:	jsr     _ppu_wait_nmi
;
; pad1 = pad_poll(0);
;
	lda     #$00
	jsr     _pad_poll
	sta     _pad1
;
; pad1_new = get_pad_new(0);
;
	lda     #$00
	jsr     _get_pad_new
	sta     _pad1_new
;
; if (pad1_new & PAD_START)
;
	and     #$10
	beq     L1890
;
; game_mode = MODE_LEVEL_SELECT;
;
	lda     #$02
	sta     _game_mode
;
; load_level_select();
;
	jsr     _load_level_select
;
; while (game_mode == MODE_TITLE)
;
L1890:	lda     _game_mode
	beq     L1775
;
; while (game_mode == MODE_LEVEL_SELECT)
;
	jmp     L1893
;
; ppu_wait_nmi();
;
L1785:	jsr     _ppu_wait_nmi
;
; pad1 = pad_poll(0);
;
	lda     #$00
	jsr     _pad_poll
	sta     _pad1
;
; pad1_new = get_pad_new(0);
;
	lda     #$00
	jsr     _get_pad_new
	sta     _pad1_new
;
; if (pad1_new & PAD_UP)
;
	and     #$08
	beq     L1891
;
; if (selected_stage > 0)
;
	lda     _selected_stage
	beq     L1792
;
; selected_stage--;
;
	dec     _selected_stage
;
; update_level_select_display();
;
L1792:	jsr     _update_level_select_display
;
; if (pad1_new & PAD_DOWN)
;
L1891:	lda     _pad1_new
	and     #$04
	beq     L1892
;
; if (selected_stage < 1)
;
	lda     _selected_stage
	bne     L1798
;
; selected_stage++;
;
	inc     _selected_stage
;
; update_level_select_display();
;
L1798:	jsr     _update_level_select_display
;
; if (pad1_new & PAD_START)
;
L1892:	lda     _pad1_new
	and     #$10
	beq     L1893
;
; current_stage = selected_stage;
;
	lda     _selected_stage
	sta     _current_stage
;
; current_level = 0;
;
	lda     #$00
	sta     _current_level
;
; game_mode = MODE_GAME;
;
	lda     #$03
	sta     _game_mode
;
; banked_call(BANK_2, bank2_load_room);
;
	lda     #$02
	jsr     pusha
	lda     #<(_bank2_load_room)
	ldx     #>(_bank2_load_room)
	jsr     _banked_call
;
; while (game_mode == MODE_LEVEL_SELECT)
;
L1893:	lda     _game_mode
	cmp     #$02
	beq     L1785
;
; while (game_mode == MODE_GAME)
;
	jmp     L1894
;
; ppu_wait_nmi();      
;
L17A7:	jsr     _ppu_wait_nmi
;
; pad1 = pad_poll(0);  
;
	lda     #$00
	jsr     _pad_poll
	sta     _pad1
;
; pad1_new = get_pad_new(0);
;
	lda     #$00
	jsr     _get_pad_new
	sta     _pad1_new
;
; pad1_state = pad1;
;
	lda     _pad1
	sta     _pad1_state
;
; if (pad1_new & PAD_START)   
;
	lda     _pad1_new
	ldx     #$00
	and     #$10
	stx     tmp1
	ora     tmp1
;
; banked_call(BANK_0, bank0_player_movement);
;
	txa
	jsr     pusha
	lda     #<(_bank0_player_movement)
	ldx     #>(_bank0_player_movement)
	jsr     _banked_call
;
; banked_call(BANK_1, projectile_movement);
;
	lda     #$01
	jsr     pusha
	lda     #<(_projectile_movement)
	ldx     #>(_projectile_movement)
	jsr     _banked_call
;
; banked_call(BANK_2, bank2_scroll_screen);  
;
	lda     #$02
	jsr     pusha
	lda     #<(_bank2_scroll_screen)
	ldx     #>(_bank2_scroll_screen)
	jsr     _banked_call
;
; oam_clear(); 
;
	jsr     _oam_clear
;
; banked_call(BANK_0, bank0_draw_player_sprite);
;
	lda     #$00
	jsr     pusha
	lda     #<(_bank0_draw_player_sprite)
	ldx     #>(_bank0_draw_player_sprite)
	jsr     _banked_call
;
; while (game_mode == MODE_GAME)
;
L1894:	lda     _game_mode
	cmp     #$03
	beq     L17A7
;
; while (1)      
;
	jmp     L1890

.endproc

